---
triple:          'arm64-apple-darwin'
binary-path:     '/Users/jeremyreimer/VulkanTest/VulkanTest/Build/Products/Release/VulkanTest'
relocations:
  - { offsetInCU: 0x52, offset: 0x52, size: 0x8, addend: 0x0, symName: __ZL9false_sym, symObjAddr: 0x38A0B8, symBinAddr: 0x10003C120, symSize: 0x0 }
  - { offsetInCU: 0x7FAA, offset: 0x7FAA, size: 0x8, addend: 0x0, symName: __ZNSt3__119piecewise_constructE, symObjAddr: 0x2B680, symBinAddr: 0x100034310, symSize: 0x0 }
  - { offsetInCU: 0x53825, offset: 0x53825, size: 0x8, addend: 0x0, symName: __ZNSt3__124__put_character_sequenceB8ue170006IcNS_11char_traitsIcEEEERNS_13basic_ostreamIT_T0_EES7_PKS4_m, symObjAddr: 0x2929C, symBinAddr: 0x10002CAA8, symSize: 0x164 }
  - { offsetInCU: 0x56E9C, offset: 0x56E9C, size: 0x8, addend: 0x0, symName: __ZNSt3__119__allocate_at_leastB8ue170006INS_9allocatorIN7tinyobj10material_tEEEEENS_19__allocation_resultINS_16allocator_traitsIT_E7pointerEEERS7_m, symObjAddr: 0x1CDE8, symBinAddr: 0x1000205F4, symSize: 0x48 }
  - { offsetInCU: 0x56F3D, offset: 0x56F3D, size: 0x8, addend: 0x0, symName: __ZN7tinyobj10material_tC2EOS0_, symObjAddr: 0x1CE30, symBinAddr: 0x10002063C, symSize: 0x464 }
  - { offsetInCU: 0x57A89, offset: 0x57A89, size: 0x8, addend: 0x0, symName: __ZNSt3__17getlineB8ue170006IcNS_11char_traitsIcEENS_9allocatorIcEEEERNS_13basic_istreamIT_T0_EES9_RNS_12basic_stringIS6_S7_T1_EES6_, symObjAddr: 0x6040, symBinAddr: 0x10000984C, symSize: 0x188 }
  - { offsetInCU: 0x57D6F, offset: 0x57D6F, size: 0x8, addend: 0x0, symName: __ZNSt3__1plB8ue170006IcNS_11char_traitsIcEENS_9allocatorIcEEEENS_12basic_stringIT_T0_T1_EERKS9_SB_, symObjAddr: 0x1DA20, symBinAddr: 0x10002122C, symSize: 0xC8 }
  - { offsetInCU: 0x5A2F1, offset: 0x5A2F1, size: 0x8, addend: 0x0, symName: __ZNSt3__119__allocate_at_leastB8ue170006INS_9allocatorIN7tinyobj14vertex_index_tEEEEENS_19__allocation_resultINS_16allocator_traitsIT_E7pointerEEERS7_m, symObjAddr: 0x1E2B0, symBinAddr: 0x100021ABC, symSize: 0x44 }
  - { offsetInCU: 0x5A392, offset: 0x5A392, size: 0x8, addend: 0x0, symName: __ZNSt3__16vectorIN7tinyobj8__line_tENS_9allocatorIS2_EEE21__push_back_slow_pathIRKS2_EEvOT_, symObjAddr: 0x1E2F4, symBinAddr: 0x100021B00, symSize: 0x114 }
  - { offsetInCU: 0x5A3A6, offset: 0x5A3A6, size: 0x8, addend: 0x0, symName: __ZNSt3__119__allocate_at_leastB8ue170006INS_9allocatorIN7tinyobj18joint_and_weight_tEEEEENS_19__allocation_resultINS_16allocator_traitsIT_E7pointerEEERS7_m, symObjAddr: 0x1DCC8, symBinAddr: 0x1000214D4, symSize: 0x34 }
  - { offsetInCU: 0x5A447, offset: 0x5A447, size: 0x8, addend: 0x0, symName: __ZNSt3__16vectorIN7tinyobj13skin_weight_tENS_9allocatorIS2_EEE21__push_back_slow_pathIRKS2_EEvOT_, symObjAddr: 0x1DCFC, symBinAddr: 0x100021508, symSize: 0xF0 }
  - { offsetInCU: 0x5A45B, offset: 0x5A45B, size: 0x8, addend: 0x0, symName: __ZNSt3__119__allocate_at_leastB8ue170006INS_9allocatorIfEEEENS_19__allocation_resultINS_16allocator_traitsIT_E7pointerEEERS5_m, symObjAddr: 0x1DC80, symBinAddr: 0x10002148C, symSize: 0x34 }
  - { offsetInCU: 0x5A4FC, offset: 0x5A4FC, size: 0x8, addend: 0x0, symName: __ZNKSt3__16vectorIN7tinyobj18joint_and_weight_tENS_9allocatorIS2_EEE20__throw_length_errorB8ue170006Ev, symObjAddr: 0x1DCB4, symBinAddr: 0x1000214C0, symSize: 0x14 }
  - { offsetInCU: 0x5AF8B, offset: 0x5AF8B, size: 0x8, addend: 0x0, symName: __ZNSt3__119__allocate_at_leastB8ue170006INS_9allocatorIN7tinyobj7index_tEEEEENS_19__allocation_resultINS_16allocator_traitsIT_E7pointerEEERS7_m, symObjAddr: 0x1FFE4, symBinAddr: 0x1000237F0, symSize: 0x44 }
  - { offsetInCU: 0x5B02C, offset: 0x5B02C, size: 0x8, addend: 0x0, symName: __ZNSt3__16vectorIjNS_9allocatorIjEEE16__init_with_sizeB8ue170006IPjS5_EEvT_T0_m, symObjAddr: 0x20028, symBinAddr: 0x100023834, symSize: 0x78 }
  - { offsetInCU: 0x5B040, offset: 0x5B040, size: 0x8, addend: 0x0, symName: __ZNSt3__119__allocate_at_leastB8ue170006INS_9allocatorIjEEEENS_19__allocation_resultINS_16allocator_traitsIT_E7pointerEEERS5_m, symObjAddr: 0x1EE54, symBinAddr: 0x100022660, symSize: 0x34 }
  - { offsetInCU: 0x5B0E1, offset: 0x5B0E1, size: 0x8, addend: 0x0, symName: __ZNKSt3__16vectorIiNS_9allocatorIiEEE20__throw_length_errorB8ue170006Ev, symObjAddr: 0x1EE88, symBinAddr: 0x100022694, symSize: 0x14 }
  - { offsetInCU: 0x5B0F5, offset: 0x5B0F5, size: 0x8, addend: 0x0, symName: __ZNSt3__119__allocate_at_leastB8ue170006INS_9allocatorIiEEEENS_19__allocation_resultINS_16allocator_traitsIT_E7pointerEEERS5_m, symObjAddr: 0x1EE9C, symBinAddr: 0x1000226A8, symSize: 0x34 }
  - { offsetInCU: 0x5B196, offset: 0x5B196, size: 0x8, addend: 0x0, symName: __ZNSt3__16vectorIN7tinyobj5tag_tENS_9allocatorIS2_EEE18__assign_with_sizeB8ue170006IPS2_S7_EEvT_T0_l, symObjAddr: 0x1EED0, symBinAddr: 0x1000226DC, symSize: 0x17C }
  - { offsetInCU: 0x5B215, offset: 0x5B215, size: 0x8, addend: 0x0, symName: __ZNSt3__119__allocate_at_leastB8ue170006INS_9allocatorIN7tinyobj7shape_tEEEEENS_19__allocation_resultINS_16allocator_traitsIT_E7pointerEEERS7_m, symObjAddr: 0x20278, symBinAddr: 0x100023A84, symSize: 0x48 }
  - { offsetInCU: 0x5B2B6, offset: 0x5B2B6, size: 0x8, addend: 0x0, symName: __ZNSt3__112construct_atB8ue170006IN7tinyobj7shape_tEJS2_EPS2_EEPT_S5_DpOT0_, symObjAddr: 0x202C0, symBinAddr: 0x100023ACC, symSize: 0x11C }
  - { offsetInCU: 0x5B385, offset: 0x5B385, size: 0x8, addend: 0x0, symName: __ZNSt3__119__allocate_at_leastB8ue170006INS_9allocatorIN7tinyobj5tag_tEEEEENS_19__allocation_resultINS_16allocator_traitsIT_E7pointerEEERS7_m, symObjAddr: 0x1FB48, symBinAddr: 0x100023354, symSize: 0x44 }
  - { offsetInCU: 0x5B426, offset: 0x5B426, size: 0x8, addend: 0x0, symName: __ZNSt3__16vectorIN7tinyobj6face_tENS_9allocatorIS2_EEE7__clearB8ue170006Ev, symObjAddr: 0x1FB8C, symBinAddr: 0x100023398, symSize: 0x54 }
  - { offsetInCU: 0x5B465, offset: 0x5B465, size: 0x8, addend: 0x0, symName: __ZNSt3__119__allocate_at_leastB8ue170006INS_9allocatorINS_12basic_stringIcNS_11char_traitsIcEENS1_IcEEEEEEEENS_19__allocation_resultINS_16allocator_traitsIT_E7pointerEEERSA_m, symObjAddr: 0x1D840, symBinAddr: 0x10002104C, symSize: 0x44 }
  - { offsetInCU: 0x5B506, offset: 0x5B506, size: 0x8, addend: 0x0, symName: __ZNSt3__142__uninitialized_allocator_move_if_noexceptB8ue170006INS_9allocatorINS_12basic_stringIcNS_11char_traitsIcEENS1_IcEEEEEENS_16reverse_iteratorIPS6_EESA_SA_EET2_RT_T0_T1_SB_, symObjAddr: 0x1D884, symBinAddr: 0x100021090, symSize: 0x9C }
  - { offsetInCU: 0x5B5B5, offset: 0x5B5B5, size: 0x8, addend: 0x0, symName: __ZNSt3__14endlB8ue170006IcNS_11char_traitsIcEEEERNS_13basic_ostreamIT_T0_EES7_, symObjAddr: 0xF1E4, symBinAddr: 0x1000129F0, symSize: 0x90 }
  - { offsetInCU: 0x5BBE2, offset: 0x5BBE2, size: 0x8, addend: 0x0, symName: __ZNSt3__120__throw_length_errorB8ue170006EPKc, symObjAddr: 0x1B9A0, symBinAddr: 0x10001F1AC, symSize: 0x50 }
  - { offsetInCU: 0x5C37C, offset: 0x5C37C, size: 0x8, addend: 0x0, symName: __ZNSt3__112__destroy_atB8ue170006INS_4pairIKNS_12basic_stringIcNS_11char_traitsIcEENS_9allocatorIcEEEES7_EELi0EEEvPT_, symObjAddr: 0x1BB24, symBinAddr: 0x10001F330, symSize: 0x44 }
  - { offsetInCU: 0x5C605, offset: 0x5C605, size: 0x8, addend: 0x0, symName: __ZNSt3__120__throw_out_of_rangeB8ue170006EPKc, symObjAddr: 0x1BB68, symBinAddr: 0x10001F374, symSize: 0x50 }
  - { offsetInCU: 0x5C7F1, offset: 0x5C7F1, size: 0x8, addend: 0x0, symName: __ZNSt3__1ssB8ue170006IcNS_11char_traitsIcEENS_9allocatorIcEEEEDaRKNS_12basic_stringIT_T0_T1_EESC_, symObjAddr: 0x1CA4C, symBinAddr: 0x100020258, symSize: 0x38 }
  - { offsetInCU: 0x5C833, offset: 0x5C833, size: 0x8, addend: 0x0, symName: __ZNSt3__1ssB8ue170006IcNS_11char_traitsIcEENS_9allocatorIcEEEEDaRKNS_12basic_stringIT_T0_T1_EESC_, symObjAddr: 0x1CA4C, symBinAddr: 0x100020258, symSize: 0x38 }
  - { offsetInCU: 0x5C851, offset: 0x5C851, size: 0x8, addend: 0x0, symName: __ZNSt3__1ssB8ue170006IcNS_11char_traitsIcEENS_9allocatorIcEEEEDaRKNS_12basic_stringIT_T0_T1_EESC_, symObjAddr: 0x1CA4C, symBinAddr: 0x100020258, symSize: 0x38 }
  - { offsetInCU: 0x5C86F, offset: 0x5C86F, size: 0x8, addend: 0x0, symName: __ZNSt3__1ssB8ue170006IcNS_11char_traitsIcEENS_9allocatorIcEEEEDaRKNS_12basic_stringIT_T0_T1_EESC_, symObjAddr: 0x1CA4C, symBinAddr: 0x100020258, symSize: 0x38 }
  - { offsetInCU: 0x5C88D, offset: 0x5C88D, size: 0x8, addend: 0x0, symName: __ZNSt3__1ssB8ue170006IcNS_11char_traitsIcEENS_9allocatorIcEEEEDaRKNS_12basic_stringIT_T0_T1_EESC_, symObjAddr: 0x1CA4C, symBinAddr: 0x100020258, symSize: 0x38 }
  - { offsetInCU: 0x5C9A6, offset: 0x5C9A6, size: 0x8, addend: 0x0, symName: __ZNSt3__127__tree_balance_after_insertB8ue170006IPNS_16__tree_node_baseIPvEEEEvT_S5_, symObjAddr: 0x1CB74, symBinAddr: 0x100020380, symSize: 0x198 }
  - { offsetInCU: 0x5CC88, offset: 0x5CC88, size: 0x8, addend: 0x0, symName: __ZNSt3__1ssB8ue170006IcNS_11char_traitsIcEEEEDaNS_17basic_string_viewIT_T0_EES7_, symObjAddr: 0x1CA84, symBinAddr: 0x100020290, symSize: 0x5C }
  - { offsetInCU: 0x5D050, offset: 0x5D050, size: 0x8, addend: 0x0, symName: __ZNSt3__142__uninitialized_allocator_move_if_noexceptB8ue170006INS_9allocatorINS_12basic_stringIcNS_11char_traitsIcEENS1_IcEEEEEENS_16reverse_iteratorIPS6_EESA_SA_EET2_RT_T0_T1_SB_, symObjAddr: 0x1D884, symBinAddr: 0x100021090, symSize: 0x9C }
  - { offsetInCU: 0x5D56A, offset: 0x5D56A, size: 0x8, addend: 0x0, symName: __ZNSt3__119__allocate_at_leastB8ue170006INS_9allocatorIN7tinyobj13skin_weight_tEEEEENS_19__allocation_resultINS_16allocator_traitsIT_E7pointerEEERS7_m, symObjAddr: 0x1DF2C, symBinAddr: 0x100021738, symSize: 0x34 }
  - { offsetInCU: 0x5D60B, offset: 0x5D60B, size: 0x8, addend: 0x0, symName: __ZNSt3__142__uninitialized_allocator_move_if_noexceptB8ue170006INS_9allocatorIN7tinyobj13skin_weight_tEEENS_16reverse_iteratorIPS3_EES7_S7_EET2_RT_T0_T1_S8_, symObjAddr: 0x1DF60, symBinAddr: 0x10002176C, symSize: 0xB0 }
  - { offsetInCU: 0x5D9C0, offset: 0x5D9C0, size: 0x8, addend: 0x0, symName: __ZNSt3__142__uninitialized_allocator_move_if_noexceptB8ue170006INS_9allocatorIN7tinyobj13skin_weight_tEEENS_16reverse_iteratorIPS3_EES7_S7_EET2_RT_T0_T1_S8_, symObjAddr: 0x1DF60, symBinAddr: 0x10002176C, symSize: 0xB0 }
  - { offsetInCU: 0x5DD02, offset: 0x5DD02, size: 0x8, addend: 0x0, symName: __ZNSt3__119__allocate_at_leastB8ue170006INS_9allocatorIN7tinyobj8__line_tEEEEENS_19__allocation_resultINS_16allocator_traitsIT_E7pointerEEERS7_m, symObjAddr: 0x1E558, symBinAddr: 0x100021D64, symSize: 0x44 }
  - { offsetInCU: 0x5DDA3, offset: 0x5DDA3, size: 0x8, addend: 0x0, symName: __ZNSt3__142__uninitialized_allocator_move_if_noexceptB8ue170006INS_9allocatorIN7tinyobj8__line_tEEENS_16reverse_iteratorIPS3_EES7_S7_EET2_RT_T0_T1_S8_, symObjAddr: 0x1E59C, symBinAddr: 0x100021DA8, symSize: 0xA8 }
  - { offsetInCU: 0x5E19F, offset: 0x5E19F, size: 0x8, addend: 0x0, symName: __ZNSt3__142__uninitialized_allocator_move_if_noexceptB8ue170006INS_9allocatorIN7tinyobj8__line_tEEENS_16reverse_iteratorIPS3_EES7_S7_EET2_RT_T0_T1_S8_, symObjAddr: 0x1E59C, symBinAddr: 0x100021DA8, symSize: 0xA8 }
  - { offsetInCU: 0x5E491, offset: 0x5E491, size: 0x8, addend: 0x0, symName: __ZNSt3__119__allocate_at_leastB8ue170006INS_9allocatorIN7tinyobj10__points_tEEEEENS_19__allocation_resultINS_16allocator_traitsIT_E7pointerEEERS7_m, symObjAddr: 0x1E8E4, symBinAddr: 0x1000220F0, symSize: 0x44 }
  - { offsetInCU: 0x5E532, offset: 0x5E532, size: 0x8, addend: 0x0, symName: __ZNSt3__142__uninitialized_allocator_move_if_noexceptB8ue170006INS_9allocatorIN7tinyobj10__points_tEEENS_16reverse_iteratorIPS3_EES7_S7_EET2_RT_T0_T1_S8_, symObjAddr: 0x1E928, symBinAddr: 0x100022134, symSize: 0xA8 }
  - { offsetInCU: 0x5E58C, offset: 0x5E58C, size: 0x8, addend: 0x0, symName: __ZNSt3__142__uninitialized_allocator_move_if_noexceptB8ue170006INS_9allocatorIN7tinyobj10__points_tEEENS_16reverse_iteratorIPS3_EES7_S7_EET2_RT_T0_T1_S8_, symObjAddr: 0x1E928, symBinAddr: 0x100022134, symSize: 0xA8 }
  - { offsetInCU: 0x5E87E, offset: 0x5E87E, size: 0x8, addend: 0x0, symName: __ZNSt3__119__allocate_at_leastB8ue170006INS_9allocatorIN7tinyobj6face_tEEEEENS_19__allocation_resultINS_16allocator_traitsIT_E7pointerEEERS7_m, symObjAddr: 0x1EC5C, symBinAddr: 0x100022468, symSize: 0x34 }
  - { offsetInCU: 0x5E91F, offset: 0x5E91F, size: 0x8, addend: 0x0, symName: __ZNSt3__142__uninitialized_allocator_move_if_noexceptB8ue170006INS_9allocatorIN7tinyobj6face_tEEENS_16reverse_iteratorIPS3_EES7_S7_EET2_RT_T0_T1_S8_, symObjAddr: 0x1EC90, symBinAddr: 0x10002249C, symSize: 0xAC }
  - { offsetInCU: 0x5E979, offset: 0x5E979, size: 0x8, addend: 0x0, symName: __ZNSt3__142__uninitialized_allocator_move_if_noexceptB8ue170006INS_9allocatorIN7tinyobj6face_tEEENS_16reverse_iteratorIPS3_EES7_S7_EET2_RT_T0_T1_S8_, symObjAddr: 0x1EC90, symBinAddr: 0x10002249C, symSize: 0xAC }
  - { offsetInCU: 0x5EFD7, offset: 0x5EFD7, size: 0x8, addend: 0x0, symName: __ZNSt3__135__uninitialized_allocator_copy_implB8ue170006INS_9allocatorIN7tinyobj5tag_tEEEPS3_S5_S5_EET2_RT_T0_T1_S6_, symObjAddr: 0x1F100, symBinAddr: 0x10002290C, symSize: 0x80 }
  - { offsetInCU: 0x5F1F3, offset: 0x5F1F3, size: 0x8, addend: 0x0, symName: __ZNSt3__112__destroy_atB8ue170006IN7tinyobj5tag_tELi0EEEvPT_, symObjAddr: 0x1F608, symBinAddr: 0x100022E14, symSize: 0x64 }
  - { offsetInCU: 0x5FFF0, offset: 0x5FFF0, size: 0x8, addend: 0x0, symName: __ZNSt3__135__uninitialized_allocator_copy_implB8ue170006INS_9allocatorINS_12basic_stringIcNS_11char_traitsIcEENS1_IcEEEEEEPS6_S8_S8_EET2_RT_T0_T1_S9_, symObjAddr: 0x1F4CC, symBinAddr: 0x100022CD8, symSize: 0xBC }
  - { offsetInCU: 0x60705, offset: 0x60705, size: 0x8, addend: 0x0, symName: __ZNSt3__121__unwrap_and_dispatchB8ue170006INS_10__overloadINS_11__copy_loopINS_17_ClassicAlgPolicyEEENS_14__copy_trivialEEEPNS_12basic_stringIcNS_11char_traitsIcEENS_9allocatorIcEEEESD_SD_Li0EEENS_4pairIT0_T2_EESF_T1_SG_, symObjAddr: 0x1FAD8, symBinAddr: 0x1000232E4, symSize: 0x5C }
  - { offsetInCU: 0x6111F, offset: 0x6111F, size: 0x8, addend: 0x0, symName: __ZNSt3__112construct_atB8ue170006IN7tinyobj7shape_tEJS2_EPS2_EEPT_S5_DpOT0_, symObjAddr: 0x202C0, symBinAddr: 0x100023ACC, symSize: 0x11C }
  - { offsetInCU: 0x6115C, offset: 0x6115C, size: 0x8, addend: 0x0, symName: __ZNSt3__112construct_atB8ue170006IN7tinyobj7shape_tEJS2_EPS2_EEPT_S5_DpOT0_, symObjAddr: 0x202C0, symBinAddr: 0x100023ACC, symSize: 0x11C }
  - { offsetInCU: 0x6117E, offset: 0x6117E, size: 0x8, addend: 0x0, symName: __ZNSt3__112construct_atB8ue170006IN7tinyobj7shape_tEJS2_EPS2_EEPT_S5_DpOT0_, symObjAddr: 0x202C0, symBinAddr: 0x100023ACC, symSize: 0x11C }
  - { offsetInCU: 0x611A1, offset: 0x611A1, size: 0x8, addend: 0x0, symName: __ZNSt3__112construct_atB8ue170006IN7tinyobj7shape_tEJS2_EPS2_EEPT_S5_DpOT0_, symObjAddr: 0x202C0, symBinAddr: 0x100023ACC, symSize: 0x11C }
  - { offsetInCU: 0x611C4, offset: 0x611C4, size: 0x8, addend: 0x0, symName: __ZNSt3__112construct_atB8ue170006IN7tinyobj7shape_tEJS2_EPS2_EEPT_S5_DpOT0_, symObjAddr: 0x202C0, symBinAddr: 0x100023ACC, symSize: 0x11C }
  - { offsetInCU: 0x61783, offset: 0x61783, size: 0x8, addend: 0x0, symName: __ZNSt3__112construct_atB8ue170006IN7tinyobj5tag_tEJS2_EPS2_EEPT_S5_DpOT0_, symObjAddr: 0x20A84, symBinAddr: 0x100024290, symSize: 0x7C }
  - { offsetInCU: 0x617C0, offset: 0x617C0, size: 0x8, addend: 0x0, symName: __ZNSt3__112construct_atB8ue170006IN7tinyobj5tag_tEJS2_EPS2_EEPT_S5_DpOT0_, symObjAddr: 0x20A84, symBinAddr: 0x100024290, symSize: 0x7C }
  - { offsetInCU: 0x617E2, offset: 0x617E2, size: 0x8, addend: 0x0, symName: __ZNSt3__112construct_atB8ue170006IN7tinyobj5tag_tEJS2_EPS2_EEPT_S5_DpOT0_, symObjAddr: 0x20A84, symBinAddr: 0x100024290, symSize: 0x7C }
  - { offsetInCU: 0x61805, offset: 0x61805, size: 0x8, addend: 0x0, symName: __ZNSt3__112construct_atB8ue170006IN7tinyobj5tag_tEJS2_EPS2_EEPT_S5_DpOT0_, symObjAddr: 0x20A84, symBinAddr: 0x100024290, symSize: 0x7C }
  - { offsetInCU: 0x61828, offset: 0x61828, size: 0x8, addend: 0x0, symName: __ZNSt3__112construct_atB8ue170006IN7tinyobj5tag_tEJS2_EPS2_EEPT_S5_DpOT0_, symObjAddr: 0x20A84, symBinAddr: 0x100024290, symSize: 0x7C }
  - { offsetInCU: 0x61C97, offset: 0x61C97, size: 0x8, addend: 0x0, symName: __ZNSt3__119__allocate_at_leastB8ue170006INS_9allocatorIPKcEEEENS_19__allocation_resultINS_16allocator_traitsIT_E7pointerEEERS7_m, symObjAddr: 0x20DC8, symBinAddr: 0x1000245D4, symSize: 0x34 }
  - { offsetInCU: 0x61D20, offset: 0x61D20, size: 0x8, addend: 0x0, symName: __ZNKSt3__16vectorIPKcNS_9allocatorIS2_EEE20__throw_out_of_rangeB8ue170006Ev, symObjAddr: 0x20DFC, symBinAddr: 0x100024608, symSize: 0x14 }
  - { offsetInCU: 0x61DA3, offset: 0x61DA3, size: 0x8, addend: 0x0, symName: __ZNSt3__112__destroy_atB8ue170006INS_4pairIKNS_12basic_stringIcNS_11char_traitsIcEENS_9allocatorIcEEEE4cellEELi0EEEvPT_, symObjAddr: 0x20F78, symBinAddr: 0x100024784, symSize: 0x54 }
  - { offsetInCU: 0x62BE5, offset: 0x62BE5, size: 0x8, addend: 0x0, symName: __ZNSt3__119__allocate_at_leastB8ue170006INS_9allocatorI23VkDeviceQueueCreateInfoEEEENS_19__allocation_resultINS_16allocator_traitsIT_E7pointerEEERS6_m, symObjAddr: 0x25CB0, symBinAddr: 0x1000294BC, symSize: 0x44 }
  - { offsetInCU: 0x62C86, offset: 0x62C86, size: 0x8, addend: 0x0, symName: __ZN24HelloTriangleApplication16chooseSwapExtentERK24VkSurfaceCapabilitiesKHR, symObjAddr: 0x25CF4, symBinAddr: 0x100029500, symSize: 0x7C }
  - { offsetInCU: 0x62C9A, offset: 0x62C9A, size: 0x8, addend: 0x0, symName: __ZNSt3__127__throw_bad_optional_accessB8ue170006Ev, symObjAddr: 0x2592C, symBinAddr: 0x100029138, symSize: 0x34 }
  - { offsetInCU: 0x637F3, offset: 0x637F3, size: 0x8, addend: 0x0, symName: __ZNSt3__119__allocate_at_leastB8ue170006INS_9allocatorIP9VkImage_TEEEENS_19__allocation_resultINS_16allocator_traitsIT_E7pointerEEERS7_m, symObjAddr: 0x25EB0, symBinAddr: 0x1000296BC, symSize: 0x34 }
  - { offsetInCU: 0x63894, offset: 0x63894, size: 0x8, addend: 0x0, symName: __ZNSt3__16vectorIP13VkImageView_TNS_9allocatorIS2_EEE6resizeEm, symObjAddr: 0x25EE4, symBinAddr: 0x1000296F0, symSize: 0x2C }
  - { offsetInCU: 0x638A8, offset: 0x638A8, size: 0x8, addend: 0x0, symName: __ZNSt3__119__allocate_at_leastB8ue170006INS_9allocatorIP16VkDeviceMemory_TEEEENS_19__allocation_resultINS_16allocator_traitsIT_E7pointerEEERS7_m, symObjAddr: 0x26D28, symBinAddr: 0x10002A534, symSize: 0x34 }
  - { offsetInCU: 0x63949, offset: 0x63949, size: 0x8, addend: 0x0, symName: __ZN24HelloTriangleApplication23beginSingleTimeCommandsEv, symObjAddr: 0x26D5C, symBinAddr: 0x10002A568, symSize: 0x70 }
  - { offsetInCU: 0x63C8E, offset: 0x63C8E, size: 0x8, addend: 0x0, symName: __ZNSt3__119__allocate_at_leastB8ue170006INS_9allocatorIP13VkImageView_TEEEENS_19__allocation_resultINS_16allocator_traitsIT_E7pointerEEERS7_m, symObjAddr: 0x260D4, symBinAddr: 0x1000298E0, symSize: 0x34 }
  - { offsetInCU: 0x63D2F, offset: 0x63D2F, size: 0x8, addend: 0x0, symName: __ZN24HelloTriangleApplication15findDepthFormatEv, symObjAddr: 0x26108, symBinAddr: 0x100029914, symSize: 0x94 }
  - { offsetInCU: 0x64074, offset: 0x64074, size: 0x8, addend: 0x0, symName: __ZNSt3__119__allocate_at_leastB8ue170006INS_9allocatorIP11VkSampler_TEEEENS_19__allocation_resultINS_16allocator_traitsIT_E7pointerEEERS7_m, symObjAddr: 0x26E8C, symBinAddr: 0x10002A698, symSize: 0x34 }
  - { offsetInCU: 0x64115, offset: 0x64115, size: 0x8, addend: 0x0, symName: __ZNKSt3__112__hash_tableINS_17__hash_value_typeI6VertexjEENS_22__unordered_map_hasherIS2_S3_NS_4hashIS2_EENS_8equal_toIS2_EELb1EEENS_21__unordered_map_equalIS2_S3_S8_S6_Lb1EEENS_9allocatorIS3_EEE4findIS2_EENS_21__hash_const_iteratorIPNS_11__hash_nodeIS3_PvEEEERKT_, symObjAddr: 0x26EC0, symBinAddr: 0x10002A6CC, symSize: 0xF8 }
  - { offsetInCU: 0x64E18, offset: 0x64E18, size: 0x8, addend: 0x0, symName: __ZNSt3__119__allocate_at_leastB8ue170006INS_9allocatorI6VertexEEEENS_19__allocation_resultINS_16allocator_traitsIT_E7pointerEEERS6_m, symObjAddr: 0x275B0, symBinAddr: 0x10002ADBC, symSize: 0x34 }
  - { offsetInCU: 0x64EB9, offset: 0x64EB9, size: 0x8, addend: 0x0, symName: __ZNSt3__112__hash_tableINS_17__hash_value_typeI6VertexjEENS_22__unordered_map_hasherIS2_S3_NS_4hashIS2_EENS_8equal_toIS2_EELb1EEENS_21__unordered_map_equalIS2_S3_S8_S6_Lb1EEENS_9allocatorIS3_EEED2Ev, symObjAddr: 0x275E4, symBinAddr: 0x10002ADF0, symSize: 0x48 }
  - { offsetInCU: 0x651E2, offset: 0x651E2, size: 0x8, addend: 0x0, symName: __ZNSt3__119__allocate_at_leastB8ue170006INS_9allocatorI19UniformBufferObjectEEEENS_19__allocation_resultINS_16allocator_traitsIT_E7pointerEEERS6_m, symObjAddr: 0x27B34, symBinAddr: 0x10002B340, symSize: 0x44 }
  - { offsetInCU: 0x65283, offset: 0x65283, size: 0x8, addend: 0x0, symName: __ZNSt3__16vectorIP17VkDescriptorSet_TNS_9allocatorIS2_EEE6resizeEm, symObjAddr: 0x27B78, symBinAddr: 0x10002B384, symSize: 0x2C }
  - { offsetInCU: 0x65608, offset: 0x65608, size: 0x8, addend: 0x0, symName: __ZNSt3__119__allocate_at_leastB8ue170006INS_9allocatorIN3glm3vecILi3EfLNS2_9qualifierE0EEEEEEENS_19__allocation_resultINS_16allocator_traitsIT_E7pointerEEERS9_m, symObjAddr: 0x28264, symBinAddr: 0x10002BA70, symSize: 0x44 }
  - { offsetInCU: 0x656A9, offset: 0x656A9, size: 0x8, addend: 0x0, symName: __ZN24HelloTriangleApplication9drawFrameEv, symObjAddr: 0x282A8, symBinAddr: 0x10002BAB4, symSize: 0x2B8 }
  - { offsetInCU: 0x65ACE, offset: 0x65ACE, size: 0x8, addend: 0x0, symName: __ZNSt3__119__allocate_at_leastB8ue170006INS_9allocatorIP18VkPhysicalDevice_TEEEENS_19__allocation_resultINS_16allocator_traitsIT_E7pointerEEERS7_m, symObjAddr: 0x245D4, symBinAddr: 0x100027DE0, symSize: 0x34 }
  - { offsetInCU: 0x65B6F, offset: 0x65B6F, size: 0x8, addend: 0x0, symName: __ZN24HelloTriangleApplication17findQueueFamiliesEP18VkPhysicalDevice_T, symObjAddr: 0x24608, symBinAddr: 0x100027E14, symSize: 0x1BC }
  - { offsetInCU: 0x65BB2, offset: 0x65BB2, size: 0x8, addend: 0x0, symName: __ZNSt3__119__allocate_at_leastB8ue170006INS_9allocatorI23VkQueueFamilyPropertiesEEEENS_19__allocation_resultINS_16allocator_traitsIT_E7pointerEEERS6_m, symObjAddr: 0x24B04, symBinAddr: 0x100028310, symSize: 0x44 }
  - { offsetInCU: 0x65C53, offset: 0x65C53, size: 0x8, addend: 0x0, symName: __ZNSt3__16vectorI21VkExtensionPropertiesNS_9allocatorIS1_EEEC2Em, symObjAddr: 0x24B48, symBinAddr: 0x100028354, symSize: 0xA0 }
  - { offsetInCU: 0x65C96, offset: 0x65C96, size: 0x8, addend: 0x0, symName: __ZNSt3__119__allocate_at_leastB8ue170006INS_9allocatorI21VkExtensionPropertiesEEEENS_19__allocation_resultINS_16allocator_traitsIT_E7pointerEEERS6_m, symObjAddr: 0x24C50, symBinAddr: 0x10002845C, symSize: 0x48 }
  - { offsetInCU: 0x65D37, offset: 0x65D37, size: 0x8, addend: 0x0, symName: __ZNSt3__13setINS_12basic_stringIcNS_11char_traitsIcEENS_9allocatorIcEEEENS_4lessIS6_EENS4_IS6_EEEC2B8ue170006INS_11__wrap_iterIPKPKcEEEET_SI_RKS8_, symObjAddr: 0x24C98, symBinAddr: 0x1000284A4, symSize: 0x7C }
  - { offsetInCU: 0x65E87, offset: 0x65E87, size: 0x8, addend: 0x0, symName: __ZNSt3__113__tree_removeB8ue170006IPNS_16__tree_node_baseIPvEEEEvT_S5_, symObjAddr: 0x252B8, symBinAddr: 0x100028AC4, symSize: 0x384 }
  - { offsetInCU: 0x66675, offset: 0x66675, size: 0x8, addend: 0x0, symName: __ZNSt3__119__allocate_at_leastB8ue170006INS_9allocatorI18VkSurfaceFormatKHREEEENS_19__allocation_resultINS_16allocator_traitsIT_E7pointerEEERS6_m, symObjAddr: 0x257A8, symBinAddr: 0x100028FB4, symSize: 0x34 }
  - { offsetInCU: 0x66716, offset: 0x66716, size: 0x8, addend: 0x0, symName: __ZNSt3__16vectorI16VkPresentModeKHRNS_9allocatorIS1_EEE8__appendEm, symObjAddr: 0x257DC, symBinAddr: 0x100028FE8, symSize: 0x108 }
  - { offsetInCU: 0x66A4A, offset: 0x66A4A, size: 0x8, addend: 0x0, symName: __ZNSt3__119__allocate_at_leastB8ue170006INS_9allocatorI16VkPresentModeKHREEEENS_19__allocation_resultINS_16allocator_traitsIT_E7pointerEEERS6_m, symObjAddr: 0x258F8, symBinAddr: 0x100029104, symSize: 0x34 }
  - { offsetInCU: 0x66AEB, offset: 0x66AEB, size: 0x8, addend: 0x0, symName: __ZNSt3__127__throw_bad_optional_accessB8ue170006Ev, symObjAddr: 0x2592C, symBinAddr: 0x100029138, symSize: 0x34 }
  - { offsetInCU: 0x674F2, offset: 0x674F2, size: 0x8, addend: 0x0, symName: __ZNSt3__119__allocate_at_leastB8ue170006INS_9allocatorIP15VkFramebuffer_TEEEENS_19__allocation_resultINS_16allocator_traitsIT_E7pointerEEERS7_m, symObjAddr: 0x269D8, symBinAddr: 0x10002A1E4, symSize: 0x34 }
  - { offsetInCU: 0x67593, offset: 0x67593, size: 0x8, addend: 0x0, symName: __ZN24HelloTriangleApplication12createBufferEyjjRP10VkBuffer_TRP16VkDeviceMemory_T, symObjAddr: 0x26A0C, symBinAddr: 0x10002A218, symSize: 0x13C }
  - { offsetInCU: 0x67A7F, offset: 0x67A7F, size: 0x8, addend: 0x0, symName: __ZNSt3__119__allocate_at_leastB8ue170006INS_9allocatorIP10VkBuffer_TEEEENS_19__allocation_resultINS_16allocator_traitsIT_E7pointerEEERS7_m, symObjAddr: 0x278A4, symBinAddr: 0x10002B0B0, symSize: 0x34 }
  - { offsetInCU: 0x67B20, offset: 0x67B20, size: 0x8, addend: 0x0, symName: __ZNSt3__16vectorIP16VkDeviceMemory_TNS_9allocatorIS2_EEE8__appendEm, symObjAddr: 0x278D8, symBinAddr: 0x10002B0E4, symSize: 0x100 }
  - { offsetInCU: 0x67E83, offset: 0x67E83, size: 0x8, addend: 0x0, symName: __ZNSt3__119__allocate_at_leastB8ue170006INS_9allocatorIPvEEEENS_19__allocation_resultINS_16allocator_traitsIT_E7pointerEEERS6_m, symObjAddr: 0x27AEC, symBinAddr: 0x10002B2F8, symSize: 0x34 }
  - { offsetInCU: 0x67F24, offset: 0x67F24, size: 0x8, addend: 0x0, symName: __ZNKSt3__16vectorI19UniformBufferObjectNS_9allocatorIS1_EEE20__throw_length_errorB8ue170006Ev, symObjAddr: 0x27B20, symBinAddr: 0x10002B32C, symSize: 0x14 }
  - { offsetInCU: 0x67F78, offset: 0x67F78, size: 0x8, addend: 0x0, symName: __ZNSt3__119__allocate_at_leastB8ue170006INS_9allocatorIP23VkDescriptorSetLayout_TEEEENS_19__allocation_resultINS_16allocator_traitsIT_E7pointerEEERS7_m, symObjAddr: 0x27C78, symBinAddr: 0x10002B484, symSize: 0x34 }
  - { offsetInCU: 0x68019, offset: 0x68019, size: 0x8, addend: 0x0, symName: __ZNSt3__16vectorIP17VkDescriptorSet_TNS_9allocatorIS2_EEE8__appendEm, symObjAddr: 0x27CAC, symBinAddr: 0x10002B4B8, symSize: 0x100 }
  - { offsetInCU: 0x6834D, offset: 0x6834D, size: 0x8, addend: 0x0, symName: __ZNSt3__119__allocate_at_leastB8ue170006INS_9allocatorIP17VkDescriptorSet_TEEEENS_19__allocation_resultINS_16allocator_traitsIT_E7pointerEEERS7_m, symObjAddr: 0x27DC0, symBinAddr: 0x10002B5CC, symSize: 0x34 }
  - { offsetInCU: 0x683EE, offset: 0x683EE, size: 0x8, addend: 0x0, symName: __ZNSt3__16vectorIP17VkCommandBuffer_TNS_9allocatorIS2_EEE6resizeEm, symObjAddr: 0x27DF4, symBinAddr: 0x10002B600, symSize: 0x2C }
  - { offsetInCU: 0x68722, offset: 0x68722, size: 0x8, addend: 0x0, symName: __ZNSt3__119__allocate_at_leastB8ue170006INS_9allocatorIP17VkCommandBuffer_TEEEENS_19__allocation_resultINS_16allocator_traitsIT_E7pointerEEERS7_m, symObjAddr: 0x27F34, symBinAddr: 0x10002B740, symSize: 0x34 }
  - { offsetInCU: 0x687C3, offset: 0x687C3, size: 0x8, addend: 0x0, symName: __ZNSt3__16vectorIP13VkSemaphore_TNS_9allocatorIS2_EEE6resizeEm, symObjAddr: 0x27F68, symBinAddr: 0x10002B774, symSize: 0x2C }
  - { offsetInCU: 0x68AF7, offset: 0x68AF7, size: 0x8, addend: 0x0, symName: __ZNSt3__119__allocate_at_leastB8ue170006INS_9allocatorIP13VkSemaphore_TEEEENS_19__allocation_resultINS_16allocator_traitsIT_E7pointerEEERS7_m, symObjAddr: 0x280D4, symBinAddr: 0x10002B8E0, symSize: 0x34 }
  - { offsetInCU: 0x68B98, offset: 0x68B98, size: 0x8, addend: 0x0, symName: __ZNSt3__16vectorIP9VkFence_TNS_9allocatorIS2_EEE8__appendEm, symObjAddr: 0x28108, symBinAddr: 0x10002B914, symSize: 0x100 }
  - { offsetInCU: 0x68ECC, offset: 0x68ECC, size: 0x8, addend: 0x0, symName: __ZNSt3__119__allocate_at_leastB8ue170006INS_9allocatorIP9VkFence_TEEEENS_19__allocation_resultINS_16allocator_traitsIT_E7pointerEEERS7_m, symObjAddr: 0x2821C, symBinAddr: 0x10002BA28, symSize: 0x34 }
  - { offsetInCU: 0x68F6D, offset: 0x68F6D, size: 0x8, addend: 0x0, symName: __ZNKSt3__16vectorIN3glm3vecILi3EfLNS1_9qualifierE0EEENS_9allocatorIS4_EEE20__throw_length_errorB8ue170006Ev, symObjAddr: 0x28250, symBinAddr: 0x10002BA5C, symSize: 0x14 }
  - { offsetInCU: 0x68FE4, offset: 0x68FE4, size: 0x8, addend: 0x0, symName: __ZNSt3__116__pad_and_outputB8ue170006IcNS_11char_traitsIcEEEENS_19ostreambuf_iteratorIT_T0_EES6_PKS4_S8_S8_RNS_8ios_baseES4_, symObjAddr: 0x29400, symBinAddr: 0x10002CC0C, symSize: 0x13C }
  - { offsetInCU: 0x6B8E6, offset: 0x6B8E6, size: 0x8, addend: 0x0, symName: __ZSt28__throw_bad_array_new_lengthB8ue170006v, symObjAddr: 0x1BA14, symBinAddr: 0x10001F220, symSize: 0x28 }
  - { offsetInCU: 0x6C207, offset: 0x6C207, size: 0x8, addend: 0x0, symName: __ZL8true_sym, symObjAddr: 0x38A100, symBinAddr: 0x10003C168, symSize: 0x0 }
  - { offsetInCU: 0x6C220, offset: 0x6C220, size: 0x8, addend: 0x0, symName: __ZL3nil, symObjAddr: 0x38A148, symBinAddr: 0x10003C1B0, symSize: 0x0 }
  - { offsetInCU: 0x6C23A, offset: 0x6C23A, size: 0x8, addend: 0x0, symName: _env, symObjAddr: 0x38A250, symBinAddr: 0x10003C390, symSize: 0x0 }
  - { offsetInCU: 0x6C250, offset: 0x6C250, size: 0x8, addend: 0x0, symName: _VERSION, symObjAddr: 0x2D328, symBinAddr: 0x10003C010, symSize: 0x0 }
  - { offsetInCU: 0x6C265, offset: 0x6C265, size: 0x8, addend: 0x0, symName: __ZL10ModelPaths, symObjAddr: 0x38A190, symBinAddr: 0x10003C1F8, symSize: 0x0 }
  - { offsetInCU: 0x6C2F4, offset: 0x6C2F4, size: 0x8, addend: 0x0, symName: __ZL12TexturePaths, symObjAddr: 0x38A1D8, symBinAddr: 0x10003C240, symSize: 0x0 }
  - { offsetInCU: 0x6C30D, offset: 0x6C30D, size: 0x8, addend: 0x0, symName: __ZL16validationLayers, symObjAddr: 0x38A220, symBinAddr: 0x10003C288, symSize: 0x0 }
  - { offsetInCU: 0x6C4ED, offset: 0x6C4ED, size: 0x8, addend: 0x0, symName: __ZL16deviceExtensions, symObjAddr: 0x38A238, symBinAddr: 0x10003C2A0, symSize: 0x0 }
  - { offsetInCU: 0x6C508, offset: 0x6C508, size: 0x8, addend: 0x0, symName: __ZL36stbi__vertically_flip_on_load_global, symObjAddr: 0x38A0A8, symBinAddr: 0x10003C110, symSize: 0x0 }
  - { offsetInCU: 0x6C523, offset: 0x6C523, size: 0x8, addend: 0x0, symName: __ZL21stbi__stdio_callbacks, symObjAddr: 0x2D418, symBinAddr: 0x1000387F8, symSize: 0x0 }
  - { offsetInCU: 0x6C5AD, offset: 0x6C5AD, size: 0x8, addend: 0x0, symName: __ZL22stbi__check_png_headerP13stbi__context, symObjAddr: 0x147E8, symBinAddr: 0x100017FF4, symSize: 0xA8 }
  - { offsetInCU: 0x6C5D9, offset: 0x6C5D9, size: 0x8, addend: 0x0, symName: __ZZL22stbi__check_png_headerP13stbi__contextE7png_sig, symObjAddr: 0x2B147, symBinAddr: 0x100033DD7, symSize: 0x0 }
  - { offsetInCU: 0x6C682, offset: 0x6C682, size: 0x8, addend: 0x0, symName: __ZL20stbi__parse_png_fileP9stbi__pngii, symObjAddr: 0x14950, symBinAddr: 0x10001815C, symSize: 0xDD8 }
  - { offsetInCU: 0x6C6AE, offset: 0x6C6AE, size: 0x8, addend: 0x0, symName: __ZZL20stbi__parse_png_fileP9stbi__pngiiE13invalid_chunk, symObjAddr: 0x2D330, symBinAddr: 0x10003C018, symSize: 0x0 }
  - { offsetInCU: 0x6D157, offset: 0x6D157, size: 0x8, addend: 0x0, symName: __ZL23stbi__depth_scale_table, symObjAddr: 0x2B14F, symBinAddr: 0x100033DDF, symSize: 0x0 }
  - { offsetInCU: 0x6D180, offset: 0x6D180, size: 0x8, addend: 0x0, symName: __ZL16first_row_filter, symObjAddr: 0x2B1C8, symBinAddr: 0x100033E58, symSize: 0x0 }
  - { offsetInCU: 0x6D19C, offset: 0x6D19C, size: 0x8, addend: 0x0, symName: __ZL17stbi__shiftsignedjii, symObjAddr: 0x171F0, symBinAddr: 0x10001A9FC, symSize: 0x64 }
  - { offsetInCU: 0x6D1C8, offset: 0x6D1C8, size: 0x8, addend: 0x0, symName: __ZZL17stbi__shiftsignedjiiE9mul_table, symObjAddr: 0x2B1D0, symBinAddr: 0x100033E60, symSize: 0x0 }
  - { offsetInCU: 0x6D1DF, offset: 0x6D1DF, size: 0x8, addend: 0x0, symName: __ZZL17stbi__shiftsignedjiiE11shift_table, symObjAddr: 0x2B1F4, symBinAddr: 0x100033E84, symSize: 0x0 }
  - { offsetInCU: 0x6D22B, offset: 0x6D22B, size: 0x8, addend: 0x0, symName: __ZL27stbi__bmp_set_mask_defaultsP14stbi__bmp_datai, symObjAddr: 0x17254, symBinAddr: 0x10001AA60, symSize: 0x54 }
  - { offsetInCU: 0x6D244, offset: 0x6D244, size: 0x8, addend: 0x0, symName: __ZL20stbi__process_markerP10stbi__jpegi, symObjAddr: 0x18A08, symBinAddr: 0x10001C214, symSize: 0x664 }
  - { offsetInCU: 0x6D7E9, offset: 0x6D7E9, size: 0x8, addend: 0x0, symName: __ZL19stbi__jpeg_dezigzag, symObjAddr: 0x2B218, symBinAddr: 0x100033EA8, symSize: 0x0 }
  - { offsetInCU: 0x6D805, offset: 0x6D805, size: 0x8, addend: 0x0, symName: __ZL26stbi__process_frame_headerP10stbi__jpegi, symObjAddr: 0x1906C, symBinAddr: 0x10001C878, symSize: 0x5CC }
  - { offsetInCU: 0x6D831, offset: 0x6D831, size: 0x8, addend: 0x0, symName: __ZZL26stbi__process_frame_headerP10stbi__jpegiE3rgb, symObjAddr: 0x2B267, symBinAddr: 0x100033EF7, symSize: 0x0 }
  - { offsetInCU: 0x6DBA8, offset: 0x6DBA8, size: 0x8, addend: 0x0, symName: __ZL11stbi__bmask, symObjAddr: 0x2B26C, symBinAddr: 0x100033EFC, symSize: 0x0 }
  - { offsetInCU: 0x6DBED, offset: 0x6DBED, size: 0x8, addend: 0x0, symName: __ZL11stbi__jbias, symObjAddr: 0x2B2B0, symBinAddr: 0x100033F40, symSize: 0x0 }
  - { offsetInCU: 0x6DC1B, offset: 0x6DC1B, size: 0x8, addend: 0x0, symName: __ZL15stbi__l2h_gamma, symObjAddr: 0x2D318, symBinAddr: 0x10003C000, symSize: 0x0 }
  - { offsetInCU: 0x6DC3D, offset: 0x6DC3D, size: 0x8, addend: 0x0, symName: __ZL15stbi__l2h_scale, symObjAddr: 0x2D31C, symBinAddr: 0x10003C004, symSize: 0x0 }
  - { offsetInCU: 0x6DC58, offset: 0x6DC58, size: 0x8, addend: 0x0, symName: __ZL17stbi__h2l_gamma_i, symObjAddr: 0x2D320, symBinAddr: 0x10003C008, symSize: 0x0 }
  - { offsetInCU: 0x6DC73, offset: 0x6DC73, size: 0x8, addend: 0x0, symName: __ZL17stbi__h2l_scale_i, symObjAddr: 0x2D324, symBinAddr: 0x10003C00C, symSize: 0x0 }
  - { offsetInCU: 0x6DC8E, offset: 0x6DC8E, size: 0x8, addend: 0x0, symName: __ZL21stbi__zdefault_length, symObjAddr: 0x2B2F0, symBinAddr: 0x100033F80, symSize: 0x0 }
  - { offsetInCU: 0x6DCB8, offset: 0x6DCB8, size: 0x8, addend: 0x0, symName: __ZL23stbi__zdefault_distance, symObjAddr: 0x2B410, symBinAddr: 0x1000340A0, symSize: 0x0 }
  - { offsetInCU: 0x6DCE1, offset: 0x6DCE1, size: 0x8, addend: 0x0, symName: __ZL18stbi__zlength_base, symObjAddr: 0x2B444, symBinAddr: 0x1000340D4, symSize: 0x0 }
  - { offsetInCU: 0x6DD0A, offset: 0x6DD0A, size: 0x8, addend: 0x0, symName: __ZL19stbi__zlength_extra, symObjAddr: 0x2B4C0, symBinAddr: 0x100034150, symSize: 0x0 }
  - { offsetInCU: 0x6DD25, offset: 0x6DD25, size: 0x8, addend: 0x0, symName: __ZL16stbi__zdist_base, symObjAddr: 0x2B53C, symBinAddr: 0x1000341CC, symSize: 0x0 }
  - { offsetInCU: 0x6DD4E, offset: 0x6DD4E, size: 0x8, addend: 0x0, symName: __ZL17stbi__zdist_extra, symObjAddr: 0x2B5BC, symBinAddr: 0x10003424C, symSize: 0x0 }
  - { offsetInCU: 0x6DD69, offset: 0x6DD69, size: 0x8, addend: 0x0, symName: __ZL34stbi__unpremultiply_on_load_global, symObjAddr: 0x38A0AC, symBinAddr: 0x10003C114, symSize: 0x0 }
  - { offsetInCU: 0x6DD84, offset: 0x6DD84, size: 0x8, addend: 0x0, symName: __ZL27stbi__de_iphone_flag_global, symObjAddr: 0x38A0B0, symBinAddr: 0x10003C118, symSize: 0x0 }
  - { offsetInCU: 0x6DD97, offset: 0x6DD97, size: 0x8, addend: 0x0, symName: __ZN7tinyobjL14tryParseDoubleEPKcS1_Pd, symObjAddr: 0x1B68C, symBinAddr: 0x10001EE98, symSize: 0x26C }
  - { offsetInCU: 0x6DDC3, offset: 0x6DDC3, size: 0x8, addend: 0x0, symName: __ZZN7tinyobjL14tryParseDoubleEPKcS1_PdE7pow_lut, symObjAddr: 0x2B640, symBinAddr: 0x1000342D0, symSize: 0x0 }
  - { offsetInCU: 0x6EA02, offset: 0x6EA02, size: 0x8, addend: 0x0, symName: __ZN7tinyobj25ParseTextureNameAndOptionEPNSt3__112basic_stringIcNS0_11char_traitsIcEENS0_9allocatorIcEEEEPNS_16texture_option_tEPKc, symObjAddr: 0x2B54, symBinAddr: 0x100006360, symSize: 0xAC8 }
  - { offsetInCU: 0x6F775, offset: 0x6F775, size: 0x8, addend: 0x0, symName: __ZN7tinyobjL8parseIntEPPKc, symObjAddr: 0x361C, symBinAddr: 0x100006E28, symSize: 0x68 }
  - { offsetInCU: 0x6F7B1, offset: 0x6F7B1, size: 0x8, addend: 0x0, symName: __ZN7tinyobj7LoadMtlEPNSt3__13mapINS0_12basic_stringIcNS0_11char_traitsIcEENS0_9allocatorIcEEEEiNS0_4lessIS7_EENS5_INS0_4pairIKS7_iEEEEEEPNS0_6vectorINS_10material_tENS5_ISH_EEEEPNS0_13basic_istreamIcS4_EEPS7_SO_, symObjAddr: 0x3684, symBinAddr: 0x100006E90, symSize: 0x16F8 }
  - { offsetInCU: 0x729F5, offset: 0x729F5, size: 0x8, addend: 0x0, symName: __ZN7tinyobjL12InitMaterialEPNS_10material_tE, symObjAddr: 0x4D7C, symBinAddr: 0x100008588, symSize: 0x4B8 }
  - { offsetInCU: 0x738EC, offset: 0x738EC, size: 0x8, addend: 0x0, symName: __ZN7tinyobjL11safeGetlineERNSt3__113basic_istreamIcNS0_11char_traitsIcEEEERNS0_12basic_stringIcS3_NS0_9allocatorIcEEEE, symObjAddr: 0x5360, symBinAddr: 0x100008B6C, symSize: 0x154 }
  - { offsetInCU: 0x73D1B, offset: 0x73D1B, size: 0x8, addend: 0x0, symName: __ZN7tinyobj7LoadObjEPNS_8attrib_tEPNSt3__16vectorINS_7shape_tENS2_9allocatorIS4_EEEEPNS3_INS_10material_tENS5_IS9_EEEEPNS2_12basic_stringIcNS2_11char_traitsIcEENS5_IcEEEESI_PKcSK_bb, symObjAddr: 0x6520, symBinAddr: 0x100009D2C, symSize: 0x390 }
  - { offsetInCU: 0x74D5C, offset: 0x74D5C, size: 0x8, addend: 0x0, symName: __ZN7tinyobj7LoadObjEPNS_8attrib_tEPNSt3__16vectorINS_7shape_tENS2_9allocatorIS4_EEEEPNS3_INS_10material_tENS5_IS9_EEEEPNS2_12basic_stringIcNS2_11char_traitsIcEENS5_IcEEEESI_PNS2_13basic_istreamIcSF_EEPNS_14MaterialReaderEbb, symObjAddr: 0x68B0, symBinAddr: 0x10000A0BC, symSize: 0x3568 }
  - { offsetInCU: 0x84984, offset: 0x84984, size: 0x8, addend: 0x0, symName: __ZN7tinyobjL11parseTripleEPPKciiiPNS_14vertex_index_tERKNS_15warning_contextE, symObjAddr: 0xA0E4, symBinAddr: 0x10000D8F0, symSize: 0x1A0 }
  - { offsetInCU: 0x84B25, offset: 0x84B25, size: 0x8, addend: 0x0, symName: __ZN7tinyobjL19exportGroupsToShapeEPNS_7shape_tERKNS_9PrimGroupERKNSt3__16vectorINS_5tag_tENS5_9allocatorIS7_EEEEiRKNS5_12basic_stringIcNS5_11char_traitsIcEENS8_IcEEEEbRKNS6_IfNS8_IfEEEEPSH_, symObjAddr: 0xA420, symBinAddr: 0x10000DC2C, symSize: 0x2ED8 }
  - { offsetInCU: 0x8EC76, offset: 0x8EC76, size: 0x8, addend: 0x0, symName: __ZN7tinyobjL11SplitStringERKNSt3__112basic_stringIcNS0_11char_traitsIcEENS0_9allocatorIcEEEEccRNS0_6vectorIS6_NS4_IS6_EEEE, symObjAddr: 0xD2F8, symBinAddr: 0x100010B04, symSize: 0x1C4 }
  - { offsetInCU: 0x8F50F, offset: 0x8F50F, size: 0x8, addend: 0x0, symName: __ZN7tinyobjL20parseVertexWithColorEPfS0_S0_S0_S0_S0_PPKcddd, symObjAddr: 0x9E54, symBinAddr: 0x10000D660, symSize: 0x290 }
  - { offsetInCU: 0x8F872, offset: 0x8F872, size: 0x8, addend: 0x0, symName: __ZN7tinyobjL8toStringImEENSt3__112basic_stringIcNS1_11char_traitsIcEENS1_9allocatorIcEEEERKT_, symObjAddr: 0xA284, symBinAddr: 0x10000DA90, symSize: 0xCC }
  - { offsetInCU: 0x8FB34, offset: 0x8FB34, size: 0x8, addend: 0x0, symName: __ZN7tinyobjL8fixIndexEiiPibRKNS_15warning_contextE, symObjAddr: 0x1E114, symBinAddr: 0x100021920, symSize: 0x188 }
  - { offsetInCU: 0x90588, offset: 0x90588, size: 0x8, addend: 0x0, symName: __ZN7tinyobj19LoadObjWithCallbackERNSt3__113basic_istreamIcNS0_11char_traitsIcEEEERKNS_10callback_tEPvPNS_14MaterialReaderEPNS0_12basic_stringIcS3_NS0_9allocatorIcEEEESG_, symObjAddr: 0xD96C, symBinAddr: 0x100011178, symSize: 0x115C }
  - { offsetInCU: 0x9D9F7, offset: 0x9D9F7, size: 0x8, addend: 0x0, symName: __ZN24HelloTriangleApplication19updateUniformBufferEjj, symObjAddr: 0x285F0, symBinAddr: 0x10002BDFC, symSize: 0x678 }
  - { offsetInCU: 0x9DA1C, offset: 0x9DA1C, size: 0x8, addend: 0x0, symName: __ZZN24HelloTriangleApplication19updateUniformBufferEjjE9startTime, symObjAddr: 0x2D350, symBinAddr: 0x10003C038, symSize: 0x0 }
  - { offsetInCU: 0xA0AD2, offset: 0xA0AD2, size: 0x8, addend: 0x0, symName: __ZNSt3__16vectorIN7tinyobj10material_tENS_9allocatorIS2_EEE26__swap_out_circular_bufferERNS_14__split_bufferIS2_RS4_EE, symObjAddr: 0x1CD50, symBinAddr: 0x10002055C, symSize: 0x84 }
  - { offsetInCU: 0xA0F09, offset: 0xA0F09, size: 0x8, addend: 0x0, symName: __ZNSt3__16vectorINS_12basic_stringIcNS_11char_traitsIcEENS_9allocatorIcEEEENS4_IS6_EEE26__swap_out_circular_bufferERNS_14__split_bufferIS6_RS7_EE, symObjAddr: 0x1D7B8, symBinAddr: 0x100020FC4, symSize: 0x74 }
  - { offsetInCU: 0xA1AA3, offset: 0xA1AA3, size: 0x8, addend: 0x0, symName: __ZNSt3__16vectorIN7tinyobj13skin_weight_tENS_9allocatorIS2_EEE26__swap_out_circular_bufferERNS_14__split_bufferIS2_RS4_EE, symObjAddr: 0x1DEA4, symBinAddr: 0x1000216B0, symSize: 0x74 }
  - { offsetInCU: 0xA1F7D, offset: 0xA1F7D, size: 0x8, addend: 0x0, symName: __ZNSt3__16vectorIN7tinyobj8__line_tENS_9allocatorIS2_EEE26__swap_out_circular_bufferERNS_14__split_bufferIS2_RS4_EE, symObjAddr: 0x1E4D0, symBinAddr: 0x100021CDC, symSize: 0x74 }
  - { offsetInCU: 0xA226D, offset: 0xA226D, size: 0x8, addend: 0x0, symName: __ZNSt3__16vectorIN7tinyobj10__points_tENS_9allocatorIS2_EEE26__swap_out_circular_bufferERNS_14__split_bufferIS2_RS4_EE, symObjAddr: 0x1E85C, symBinAddr: 0x100022068, symSize: 0x74 }
  - { offsetInCU: 0xA2563, offset: 0xA2563, size: 0x8, addend: 0x0, symName: __ZNSt3__16vectorIN7tinyobj6face_tENS_9allocatorIS2_EEE26__swap_out_circular_bufferERNS_14__split_bufferIS2_RS4_EE, symObjAddr: 0x1EBD4, symBinAddr: 0x1000223E0, symSize: 0x74 }
  - { offsetInCU: 0xA282D, offset: 0xA282D, size: 0x8, addend: 0x0, symName: __ZNSt3__16vectorIN7tinyobj7shape_tENS_9allocatorIS2_EEE26__swap_out_circular_bufferERNS_14__split_bufferIS2_RS4_EE, symObjAddr: 0x201D4, symBinAddr: 0x1000239E0, symSize: 0x90 }
  - { offsetInCU: 0xA2A8A, offset: 0xA2A8A, size: 0x8, addend: 0x0, symName: __ZNSt3__16vectorIN7tinyobj5tag_tENS_9allocatorIS2_EEE26__swap_out_circular_bufferERNS_14__split_bufferIS2_RS4_EE, symObjAddr: 0x209F4, symBinAddr: 0x100024200, symSize: 0x90 }
  - { offsetInCU: 0xA6A35, offset: 0xA6A35, size: 0x8, addend: 0x0, symName: _stbi_failure_reason, symObjAddr: 0x0, symBinAddr: 0x10000380C, symSize: 0x24 }
  - { offsetInCU: 0xA6A5D, offset: 0xA6A5D, size: 0x8, addend: 0x0, symName: _stbi_image_free, symObjAddr: 0x24, symBinAddr: 0x100003830, symSize: 0x4 }
  - { offsetInCU: 0xA6A79, offset: 0xA6A79, size: 0x8, addend: 0x0, symName: _stbi_set_flip_vertically_on_load, symObjAddr: 0x28, symBinAddr: 0x100003834, symSize: 0xC }
  - { offsetInCU: 0xA6AA0, offset: 0xA6AA0, size: 0x8, addend: 0x0, symName: _stbi_set_flip_vertically_on_load_thread, symObjAddr: 0x34, symBinAddr: 0x100003840, symSize: 0x40 }
  - { offsetInCU: 0xA6B37, offset: 0xA6B37, size: 0x8, addend: 0x0, symName: _stbi_load, symObjAddr: 0x74, symBinAddr: 0x100003880, symSize: 0x94 }
  - { offsetInCU: 0xA6C50, offset: 0xA6C50, size: 0x8, addend: 0x0, symName: _stbi_load_from_file, symObjAddr: 0x108, symBinAddr: 0x100003914, symSize: 0xF8 }
  - { offsetInCU: 0xA6DF6, offset: 0xA6DF6, size: 0x8, addend: 0x0, symName: __ZL19stbi__refill_bufferP13stbi__context, symObjAddr: 0x148E0, symBinAddr: 0x1000180EC, symSize: 0x70 }
  - { offsetInCU: 0xA6E45, offset: 0xA6E45, size: 0x8, addend: 0x0, symName: __ZL31stbi__load_and_postprocess_8bitP13stbi__contextPiS1_S1_i, symObjAddr: 0x200, symBinAddr: 0x100003A0C, symSize: 0x158 }
  - { offsetInCU: 0xA7008, offset: 0xA7008, size: 0x8, addend: 0x0, symName: _stbi_load_from_file_16, symObjAddr: 0x358, symBinAddr: 0x100003B64, symSize: 0xF8 }
  - { offsetInCU: 0xA70B8, offset: 0xA70B8, size: 0x8, addend: 0x0, symName: __ZL15stbi__load_mainP13stbi__contextPiS1_S1_iP17stbi__result_infoi, symObjAddr: 0xF368, symBinAddr: 0x100012B74, symSize: 0x182C }
  - { offsetInCU: 0xA846D, offset: 0xA846D, size: 0x8, addend: 0x0, symName: __ZL19stbi__vertical_flipPviii, symObjAddr: 0x10B94, symBinAddr: 0x1000143A0, symSize: 0xFC }
  - { offsetInCU: 0xA8569, offset: 0xA8569, size: 0x8, addend: 0x0, symName: __ZL31stbi__load_and_postprocess_8bitP13stbi__contextPiS1_S1_i.cold.1, symObjAddr: 0x29B64, symBinAddr: 0x100032EAC, symSize: 0x28 }
  - { offsetInCU: 0xA8581, offset: 0xA8581, size: 0x8, addend: 0x0, symName: _stbi_load_from_file_16, symObjAddr: 0x358, symBinAddr: 0x100003B64, symSize: 0xF8 }
  - { offsetInCU: 0xA86BB, offset: 0xA86BB, size: 0x8, addend: 0x0, symName: __ZL32stbi__load_and_postprocess_16bitP13stbi__contextPiS1_S1_i, symObjAddr: 0x450, symBinAddr: 0x100003C5C, symSize: 0x150 }
  - { offsetInCU: 0xA88EB, offset: 0xA88EB, size: 0x8, addend: 0x0, symName: __ZL32stbi__load_and_postprocess_16bitP13stbi__contextPiS1_S1_i.cold.1, symObjAddr: 0x29B8C, symBinAddr: 0x100032ED4, symSize: 0x28 }
  - { offsetInCU: 0xA8903, offset: 0xA8903, size: 0x8, addend: 0x0, symName: _stbi_load_16, symObjAddr: 0x5A0, symBinAddr: 0x100003DAC, symSize: 0x94 }
  - { offsetInCU: 0xA8A4F, offset: 0xA8A4F, size: 0x8, addend: 0x0, symName: _stbi_load_16_from_memory, symObjAddr: 0x634, symBinAddr: 0x100003E40, symSize: 0x7C }
  - { offsetInCU: 0xA8B37, offset: 0xA8B37, size: 0x8, addend: 0x0, symName: _stbi_load_16_from_callbacks, symObjAddr: 0x6B0, symBinAddr: 0x100003EBC, symSize: 0xC4 }
  - { offsetInCU: 0xA8C33, offset: 0xA8C33, size: 0x8, addend: 0x0, symName: _stbi_load_from_memory, symObjAddr: 0x774, symBinAddr: 0x100003F80, symSize: 0x7C }
  - { offsetInCU: 0xA8D1B, offset: 0xA8D1B, size: 0x8, addend: 0x0, symName: _stbi_load_from_callbacks, symObjAddr: 0x7F0, symBinAddr: 0x100003FFC, symSize: 0xC4 }
  - { offsetInCU: 0xA8F81, offset: 0xA8F81, size: 0x8, addend: 0x0, symName: _stbi_load_gif_from_memory, symObjAddr: 0x8B4, symBinAddr: 0x1000040C0, symSize: 0x3A4 }
  - { offsetInCU: 0xA92E1, offset: 0xA92E1, size: 0x8, addend: 0x0, symName: __ZL14stbi__gif_testP13stbi__context, symObjAddr: 0x10C90, symBinAddr: 0x10001449C, symSize: 0x170 }
  - { offsetInCU: 0xA948C, offset: 0xA948C, size: 0x8, addend: 0x0, symName: __ZL19stbi__gif_load_nextP13stbi__contextP9stbi__gifPiiPh, symObjAddr: 0x172A8, symBinAddr: 0x10001AAB4, symSize: 0x828 }
  - { offsetInCU: 0xA9A57, offset: 0xA9A57, size: 0x8, addend: 0x0, symName: __ZL20stbi__convert_formatPhiijj, symObjAddr: 0x15728, symBinAddr: 0x100018F34, symSize: 0x3C0 }
  - { offsetInCU: 0xA9C2B, offset: 0xA9C2B, size: 0x8, addend: 0x0, symName: __ZL22stbi__convert_format16Ptiijj, symObjAddr: 0x15AE8, symBinAddr: 0x1000192F4, symSize: 0x3B8 }
  - { offsetInCU: 0xA9C36, offset: 0xA9C36, size: 0x8, addend: 0x0, symName: __ZL28stbi__load_gif_main_outofmemP9stbi__gifPhPPi, symObjAddr: 0x1AC08, symBinAddr: 0x10001E414, symSize: 0x7C }
  - { offsetInCU: 0xA9CB2, offset: 0xA9CB2, size: 0x8, addend: 0x0, symName: _stbi_loadf_from_memory, symObjAddr: 0xC58, symBinAddr: 0x100004464, symSize: 0x7C }
  - { offsetInCU: 0xA9D9A, offset: 0xA9D9A, size: 0x8, addend: 0x0, symName: __ZL16stbi__loadf_mainP13stbi__contextPiS1_S1_i, symObjAddr: 0xCD4, symBinAddr: 0x1000044E0, symSize: 0x250 }
  - { offsetInCU: 0xAA129, offset: 0xAA129, size: 0x8, addend: 0x0, symName: __ZL14stbi__hdr_testP13stbi__context, symObjAddr: 0x11B4, symBinAddr: 0x1000049C0, symSize: 0x4C }
  - { offsetInCU: 0xAA1CD, offset: 0xAA1CD, size: 0x8, addend: 0x0, symName: __ZL14stbi__hdr_loadP13stbi__contextPiS1_S1_iP17stbi__result_info, symObjAddr: 0x13510, symBinAddr: 0x100016D1C, symSize: 0x62C }
  - { offsetInCU: 0xAA720, offset: 0xAA720, size: 0x8, addend: 0x0, symName: __ZL17stbi__malloc_mad4iiiii, symObjAddr: 0x1A3C8, symBinAddr: 0x10001DBD4, symSize: 0x5C }
  - { offsetInCU: 0xAA7D6, offset: 0xAA7D6, size: 0x8, addend: 0x0, symName: _stbi_loadf_from_callbacks, symObjAddr: 0xF24, symBinAddr: 0x100004730, symSize: 0xC4 }
  - { offsetInCU: 0xAA8D2, offset: 0xAA8D2, size: 0x8, addend: 0x0, symName: _stbi_loadf, symObjAddr: 0xFE8, symBinAddr: 0x1000047F4, symSize: 0x94 }
  - { offsetInCU: 0xAA9EB, offset: 0xAA9EB, size: 0x8, addend: 0x0, symName: _stbi_loadf_from_file, symObjAddr: 0x107C, symBinAddr: 0x100004888, symSize: 0xCC }
  - { offsetInCU: 0xAAAFF, offset: 0xAAAFF, size: 0x8, addend: 0x0, symName: _stbi_is_hdr_from_memory, symObjAddr: 0x1148, symBinAddr: 0x100004954, symSize: 0x6C }
  - { offsetInCU: 0xAABA6, offset: 0xAABA6, size: 0x8, addend: 0x0, symName: __ZL19stbi__hdr_test_coreP13stbi__contextPKc, symObjAddr: 0x1AC84, symBinAddr: 0x10001E490, symSize: 0x84 }
  - { offsetInCU: 0xAAC3F, offset: 0xAAC3F, size: 0x8, addend: 0x0, symName: _stbi_is_hdr, symObjAddr: 0x1200, symBinAddr: 0x100004A0C, symSize: 0x40 }
  - { offsetInCU: 0xAACD5, offset: 0xAACD5, size: 0x8, addend: 0x0, symName: _stbi_is_hdr_from_file, symObjAddr: 0x1240, symBinAddr: 0x100004A4C, symSize: 0xC8 }
  - { offsetInCU: 0xAADF5, offset: 0xAADF5, size: 0x8, addend: 0x0, symName: _stbi_is_hdr_from_callbacks, symObjAddr: 0x1308, symBinAddr: 0x100004B14, symSize: 0x94 }
  - { offsetInCU: 0xAAE99, offset: 0xAAE99, size: 0x8, addend: 0x0, symName: _stbi_ldr_to_hdr_gamma, symObjAddr: 0x139C, symBinAddr: 0x100004BA8, symSize: 0xC }
  - { offsetInCU: 0xAAEC1, offset: 0xAAEC1, size: 0x8, addend: 0x0, symName: _stbi_ldr_to_hdr_scale, symObjAddr: 0x13A8, symBinAddr: 0x100004BB4, symSize: 0xC }
  - { offsetInCU: 0xAAEE9, offset: 0xAAEE9, size: 0x8, addend: 0x0, symName: _stbi_hdr_to_ldr_gamma, symObjAddr: 0x13B4, symBinAddr: 0x100004BC0, symSize: 0x14 }
  - { offsetInCU: 0xAAF11, offset: 0xAAF11, size: 0x8, addend: 0x0, symName: _stbi_hdr_to_ldr_scale, symObjAddr: 0x13C8, symBinAddr: 0x100004BD4, symSize: 0x14 }
  - { offsetInCU: 0xAAF39, offset: 0xAAF39, size: 0x8, addend: 0x0, symName: _stbi_zlib_decode_malloc_guesssize, symObjAddr: 0x13DC, symBinAddr: 0x100004BE8, symSize: 0xE0 }
  - { offsetInCU: 0xAAFF6, offset: 0xAAFF6, size: 0x8, addend: 0x0, symName: __ZL13stbi__do_zlibP10stbi__zbufPciii, symObjAddr: 0x14BC, symBinAddr: 0x100004CC8, symSize: 0xAAC }
  - { offsetInCU: 0xABCE0, offset: 0xABCE0, size: 0x8, addend: 0x0, symName: __ZL15stbi__fill_bitsP10stbi__zbuf, symObjAddr: 0x1AAC8, symBinAddr: 0x10001E2D4, symSize: 0x60 }
  - { offsetInCU: 0xABD45, offset: 0xABD45, size: 0x8, addend: 0x0, symName: __ZL20stbi__zbuild_huffmanP14stbi__zhuffmanPKhi, symObjAddr: 0x1A8AC, symBinAddr: 0x10001E0B8, symSize: 0x21C }
  - { offsetInCU: 0xABE88, offset: 0xABE88, size: 0x8, addend: 0x0, symName: __ZL13stbi__zexpandP10stbi__zbufPci, symObjAddr: 0x1AB28, symBinAddr: 0x10001E334, symSize: 0xE0 }
  - { offsetInCU: 0xABF53, offset: 0xABF53, size: 0x8, addend: 0x0, symName: _stbi_zlib_decode_malloc, symObjAddr: 0x1F68, symBinAddr: 0x100005774, symSize: 0xC }
  - { offsetInCU: 0xABFC9, offset: 0xABFC9, size: 0x8, addend: 0x0, symName: _stbi_zlib_decode_malloc_guesssize_headerflag, symObjAddr: 0x1F74, symBinAddr: 0x100005780, symSize: 0xE4 }
  - { offsetInCU: 0xAC097, offset: 0xAC097, size: 0x8, addend: 0x0, symName: _stbi_zlib_decode_buffer, symObjAddr: 0x2058, symBinAddr: 0x100005864, symSize: 0x98 }
  - { offsetInCU: 0xAC120, offset: 0xAC120, size: 0x8, addend: 0x0, symName: _stbi_zlib_decode_noheader_malloc, symObjAddr: 0x20F0, symBinAddr: 0x1000058FC, symSize: 0xD4 }
  - { offsetInCU: 0xAC1D0, offset: 0xAC1D0, size: 0x8, addend: 0x0, symName: _stbi_zlib_decode_noheader_buffer, symObjAddr: 0x21C4, symBinAddr: 0x1000059D0, symSize: 0x98 }
  - { offsetInCU: 0xAC259, offset: 0xAC259, size: 0x8, addend: 0x0, symName: _stbi_set_unpremultiply_on_load, symObjAddr: 0x225C, symBinAddr: 0x100005A68, symSize: 0xC }
  - { offsetInCU: 0xAC280, offset: 0xAC280, size: 0x8, addend: 0x0, symName: _stbi_convert_iphone_png_to_rgb, symObjAddr: 0x2268, symBinAddr: 0x100005A74, symSize: 0xC }
  - { offsetInCU: 0xAC2A7, offset: 0xAC2A7, size: 0x8, addend: 0x0, symName: _stbi_set_unpremultiply_on_load_thread, symObjAddr: 0x2274, symBinAddr: 0x100005A80, symSize: 0x40 }
  - { offsetInCU: 0xAC2E7, offset: 0xAC2E7, size: 0x8, addend: 0x0, symName: _stbi_convert_iphone_png_to_rgb_thread, symObjAddr: 0x22B4, symBinAddr: 0x100005AC0, symSize: 0x40 }
  - { offsetInCU: 0xAC327, offset: 0xAC327, size: 0x8, addend: 0x0, symName: _stbi_info, symObjAddr: 0x22F4, symBinAddr: 0x100005B00, symSize: 0x84 }
  - { offsetInCU: 0xAC42A, offset: 0xAC42A, size: 0x8, addend: 0x0, symName: _stbi_info_from_file, symObjAddr: 0x2378, symBinAddr: 0x100005B84, symSize: 0xE8 }
  - { offsetInCU: 0xAC57A, offset: 0xAC57A, size: 0x8, addend: 0x0, symName: __ZL15stbi__info_mainP13stbi__contextPiS1_S1_, symObjAddr: 0x2460, symBinAddr: 0x100005C6C, symSize: 0x278 }
  - { offsetInCU: 0xACC24, offset: 0xACC24, size: 0x8, addend: 0x0, symName: __ZL24stbi__decode_jpeg_headerP10stbi__jpegi, symObjAddr: 0x18254, symBinAddr: 0x10001BA60, symSize: 0x15C }
  - { offsetInCU: 0xACD50, offset: 0xACD50, size: 0x8, addend: 0x0, symName: __ZL18stbi__png_info_rawP9stbi__pngPiS1_S1_, symObjAddr: 0x1B608, symBinAddr: 0x10001EE14, symSize: 0x84 }
  - { offsetInCU: 0xACDC5, offset: 0xACDC5, size: 0x8, addend: 0x0, symName: __ZL16stbi__gif_headerP13stbi__contextP9stbi__gifPii, symObjAddr: 0x17AD0, symBinAddr: 0x10001B2DC, symSize: 0x2D8 }
  - { offsetInCU: 0xAD049, offset: 0xAD049, size: 0x8, addend: 0x0, symName: __ZL22stbi__bmp_parse_headerP13stbi__contextP14stbi__bmp_data, symObjAddr: 0x16CD8, symBinAddr: 0x10001A4E4, symSize: 0x474 }
  - { offsetInCU: 0xAD65A, offset: 0xAD65A, size: 0x8, addend: 0x0, symName: __ZL14stbi__psd_infoP13stbi__contextPiS1_S1_, symObjAddr: 0x1AD08, symBinAddr: 0x10001E514, symSize: 0x150 }
  - { offsetInCU: 0xAD86F, offset: 0xAD86F, size: 0x8, addend: 0x0, symName: __ZL14stbi__pic_infoP13stbi__contextPiS1_S1_, symObjAddr: 0x1AE58, symBinAddr: 0x10001E664, symSize: 0x284 }
  - { offsetInCU: 0xADB13, offset: 0xADB13, size: 0x8, addend: 0x0, symName: __ZL14stbi__pnm_infoP13stbi__contextPiS1_S1_, symObjAddr: 0x1A188, symBinAddr: 0x10001D994, symSize: 0x1D4 }
  - { offsetInCU: 0xADD60, offset: 0xADD60, size: 0x8, addend: 0x0, symName: __ZL14stbi__hdr_infoP13stbi__contextPiS1_S1_, symObjAddr: 0x1B0DC, symBinAddr: 0x10001E8E8, symSize: 0x1BC }
  - { offsetInCU: 0xADE61, offset: 0xADE61, size: 0x8, addend: 0x0, symName: __ZL14stbi__tga_infoP13stbi__contextPiS1_S1_, symObjAddr: 0x1B298, symBinAddr: 0x10001EAA4, symSize: 0x370 }
  - { offsetInCU: 0xAE1AB, offset: 0xAE1AB, size: 0x8, addend: 0x0, symName: _stbi_is_16_bit, symObjAddr: 0x26D8, symBinAddr: 0x100005EE4, symSize: 0x64 }
  - { offsetInCU: 0xAE26C, offset: 0xAE26C, size: 0x8, addend: 0x0, symName: _stbi_is_16_bit_from_file, symObjAddr: 0x273C, symBinAddr: 0x100005F48, symSize: 0xC8 }
  - { offsetInCU: 0xAE37A, offset: 0xAE37A, size: 0x8, addend: 0x0, symName: __ZL16stbi__is_16_mainP13stbi__context, symObjAddr: 0x2804, symBinAddr: 0x100006010, symSize: 0x118 }
  - { offsetInCU: 0xAE695, offset: 0xAE695, size: 0x8, addend: 0x0, symName: __ZL13stbi__get16beP13stbi__context, symObjAddr: 0x15F1C, symBinAddr: 0x100019728, symSize: 0x84 }
  - { offsetInCU: 0xAE734, offset: 0xAE734, size: 0x8, addend: 0x0, symName: _stbi_info_from_memory, symObjAddr: 0x291C, symBinAddr: 0x100006128, symSize: 0x78 }
  - { offsetInCU: 0xAE805, offset: 0xAE805, size: 0x8, addend: 0x0, symName: _stbi_info_from_callbacks, symObjAddr: 0x2994, symBinAddr: 0x1000061A0, symSize: 0xB4 }
  - { offsetInCU: 0xAE8EB, offset: 0xAE8EB, size: 0x8, addend: 0x0, symName: _stbi_is_16_bit_from_memory, symObjAddr: 0x2A48, symBinAddr: 0x100006254, symSize: 0x6C }
  - { offsetInCU: 0xAE977, offset: 0xAE977, size: 0x8, addend: 0x0, symName: _stbi_is_16_bit_from_callbacks, symObjAddr: 0x2AB4, symBinAddr: 0x1000062C0, symSize: 0x94 }
  - { offsetInCU: 0xAEA33, offset: 0xAEA33, size: 0x8, addend: 0x0, symName: __ZN7tinyobj14MaterialReaderD2Ev, symObjAddr: 0x2B48, symBinAddr: 0x100006354, symSize: 0x4 }
  - { offsetInCU: 0xAEA5E, offset: 0xAEA5E, size: 0x8, addend: 0x0, symName: __ZN7tinyobj14MaterialReaderD1Ev, symObjAddr: 0x2B4C, symBinAddr: 0x100006358, symSize: 0x4 }
  - { offsetInCU: 0xAEA87, offset: 0xAEA87, size: 0x8, addend: 0x0, symName: __ZN7tinyobj14MaterialReaderD0Ev, symObjAddr: 0x2B50, symBinAddr: 0x10000635C, symSize: 0x4 }
  - { offsetInCU: 0xAED3E, offset: 0xAED3E, size: 0x8, addend: 0x0, symName: __ZNSt3__112basic_stringIcNS_11char_traitsIcEENS_9allocatorIcEEEC2B8ue170006ILi0EEEPKc, symObjAddr: 0x1BA3C, symBinAddr: 0x10001F248, symSize: 0xA0 }
  - { offsetInCU: 0xAF0A8, offset: 0xAF0A8, size: 0x8, addend: 0x0, symName: __ZNSt3__16__treeINS_12__value_typeINS_12basic_stringIcNS_11char_traitsIcEENS_9allocatorIcEEEES7_EENS_19__map_value_compareIS7_S8_NS_4lessIS7_EELb1EEENS5_IS8_EEE7destroyEPNS_11__tree_nodeIS8_PvEE, symObjAddr: 0x1BADC, symBinAddr: 0x10001F2E8, symSize: 0x48 }
  - { offsetInCU: 0xAF0D1, offset: 0xAF0D1, size: 0x8, addend: 0x0, symName: __ZNSt3__112basic_stringIcNS_11char_traitsIcEENS_9allocatorIcEEE16__init_with_sizeB8ue170006IPKcS8_EEvT_T0_m, symObjAddr: 0x1B8F8, symBinAddr: 0x10001F104, symSize: 0x94 }
  - { offsetInCU: 0xAF2A6, offset: 0xAF2A6, size: 0x8, addend: 0x0, symName: __ZNKSt3__112basic_stringIcNS_11char_traitsIcEENS_9allocatorIcEEE20__throw_length_errorB8ue170006Ev, symObjAddr: 0x1B98C, symBinAddr: 0x10001F198, symSize: 0x14 }
  - { offsetInCU: 0xAFBC1, offset: 0xAFBC1, size: 0x8, addend: 0x0, symName: __ZNSt3__118basic_stringstreamIcNS_11char_traitsIcEENS_9allocatorIcEEEC1B8ue170006Ev, symObjAddr: 0x5234, symBinAddr: 0x100008A40, symSize: 0x12C }
  - { offsetInCU: 0xAFCCC, offset: 0xAFCCC, size: 0x8, addend: 0x0, symName: __ZNSt3__112basic_stringIcNS_11char_traitsIcEENS_9allocatorIcEEE25__init_copy_ctor_externalEPKcm, symObjAddr: 0x1DBF0, symBinAddr: 0x1000213FC, symSize: 0x7C }
  - { offsetInCU: 0xB000E, offset: 0xB000E, size: 0x8, addend: 0x0, symName: __ZNKSt3__16vectorIfNS_9allocatorIfEEE20__throw_length_errorB8ue170006Ev, symObjAddr: 0x1DC6C, symBinAddr: 0x100021478, symSize: 0x14 }
  - { offsetInCU: 0xB001F, offset: 0xB001F, size: 0x8, addend: 0x0, symName: __ZNSt3__16__treeINS_12__value_typeINS_12basic_stringIcNS_11char_traitsIcEENS_9allocatorIcEEEEiEENS_19__map_value_compareIS7_S8_NS_4lessIS7_EELb1EEENS5_IS8_EEE25__emplace_unique_key_argsIS7_JNS_4pairIS7_iEEEEENSG_INS_15__tree_iteratorIS8_PNS_11__tree_nodeIS8_PvEElEEbEERKT_DpOT0_, symObjAddr: 0x29120, symBinAddr: 0x10002C92C, symSize: 0x98 }
  - { offsetInCU: 0xB02E0, offset: 0xB02E0, size: 0x8, addend: 0x0, symName: __ZNSt3__16vectorIN7tinyobj10material_tENS_9allocatorIS2_EEE9push_backB8ue170006ERKS2_, symObjAddr: 0x54B4, symBinAddr: 0x100008CC0, symSize: 0x130 }
  - { offsetInCU: 0xB06C2, offset: 0xB06C2, size: 0x8, addend: 0x0, symName: __ZNSt3__112basic_stringIcNS_11char_traitsIcEENS_9allocatorIcEEEC2B8ue170006EPKcm, symObjAddr: 0x1D39C, symBinAddr: 0x100020BA8, symSize: 0x98 }
  - { offsetInCU: 0xB0A0C, offset: 0xB0A0C, size: 0x8, addend: 0x0, symName: __ZNSt3__14pairINS_12basic_stringIcNS_11char_traitsIcEENS_9allocatorIcEEEES6_EC2B8ue170006IRS6_S9_LPv0EEEOT_OT0_, symObjAddr: 0x1D434, symBinAddr: 0x100020C40, symSize: 0x94 }
  - { offsetInCU: 0xB0A1D, offset: 0xB0A1D, size: 0x8, addend: 0x0, symName: __ZNSt3__14pairINS_12basic_stringIcNS_11char_traitsIcEENS_9allocatorIcEEEES6_EC2B8ue170006IRS6_S9_LPv0EEEOT_OT0_, symObjAddr: 0x1D434, symBinAddr: 0x100020C40, symSize: 0x94 }
  - { offsetInCU: 0xB0CB1, offset: 0xB0CB1, size: 0x8, addend: 0x0, symName: __ZNSt3__16__treeINS_12__value_typeINS_12basic_stringIcNS_11char_traitsIcEENS_9allocatorIcEEEES7_EENS_19__map_value_compareIS7_S8_NS_4lessIS7_EELb1EEENS5_IS8_EEE25__emplace_unique_key_argsIS7_JNS_4pairIS7_S7_EEEEENSG_INS_15__tree_iteratorIS8_PNS_11__tree_nodeIS8_PvEElEEbEERKT_DpOT0_, symObjAddr: 0x295D4, symBinAddr: 0x10002CDE0, symSize: 0xCC }
  - { offsetInCU: 0xB10C2, offset: 0xB10C2, size: 0x8, addend: 0x0, symName: __ZNSt3__14pairINS_12basic_stringIcNS_11char_traitsIcEENS_9allocatorIcEEEES6_ED1Ev, symObjAddr: 0x5618, symBinAddr: 0x100008E24, symSize: 0x40 }
  - { offsetInCU: 0xB1345, offset: 0xB1345, size: 0x8, addend: 0x0, symName: __ZNSt3__112basic_stringIcNS_11char_traitsIcEENS_9allocatorIcEEEaSB8ue170006EPKc, symObjAddr: 0x55E4, symBinAddr: 0x100008DF0, symSize: 0x34 }
  - { offsetInCU: 0xB13DB, offset: 0xB13DB, size: 0x8, addend: 0x0, symName: __ZNKSt3__115basic_stringbufIcNS_11char_traitsIcEENS_9allocatorIcEEE3strB8ue170006IS4_EENS_12basic_stringIcS2_T_EERKS8_, symObjAddr: 0x296A0, symBinAddr: 0x10002CEAC, symSize: 0x8C }
  - { offsetInCU: 0xB1749, offset: 0xB1749, size: 0x8, addend: 0x0, symName: __ZNKSt3__115basic_stringbufIcNS_11char_traitsIcEENS_9allocatorIcEEE4viewB8ue170006Ev, symObjAddr: 0x2972C, symBinAddr: 0x10002CF38, symSize: 0x4C }
  - { offsetInCU: 0xB1763, offset: 0xB1763, size: 0x8, addend: 0x0, symName: __ZN7tinyobj10material_tD2Ev, symObjAddr: 0x1D4C8, symBinAddr: 0x100020CD4, symSize: 0x1DC }
  - { offsetInCU: 0xB3AE3, offset: 0xB3AE3, size: 0x8, addend: 0x0, symName: __ZNSt3__118basic_stringstreamIcNS_11char_traitsIcEENS_9allocatorIcEEED1Ev, symObjAddr: 0x5658, symBinAddr: 0x100008E64, symSize: 0x88 }
  - { offsetInCU: 0xB3DC4, offset: 0xB3DC4, size: 0x8, addend: 0x0, symName: __ZNSt3__16__treeINS_12__value_typeINS_12basic_stringIcNS_11char_traitsIcEENS_9allocatorIcEEEES7_EENS_19__map_value_compareIS7_S8_NS_4lessIS7_EELb1EEENS5_IS8_EEE7destroyEPNS_11__tree_nodeIS8_PvEE, symObjAddr: 0x1BADC, symBinAddr: 0x10001F2E8, symSize: 0x48 }
  - { offsetInCU: 0xB4426, offset: 0xB4426, size: 0x8, addend: 0x0, symName: __ZN7tinyobj10material_tC2ERKS0_, symObjAddr: 0x1BBDC, symBinAddr: 0x10001F3E8, symSize: 0xA34 }
  - { offsetInCU: 0xB770D, offset: 0xB770D, size: 0x8, addend: 0x0, symName: __ZNSt3__114__split_bufferIN7tinyobj10material_tERNS_9allocatorIS2_EEED2Ev, symObjAddr: 0x1D294, symBinAddr: 0x100020AA0, symSize: 0x4C }
  - { offsetInCU: 0xB78CB, offset: 0xB78CB, size: 0x8, addend: 0x0, symName: __ZNKSt3__16vectorIN7tinyobj10material_tENS_9allocatorIS2_EEE20__throw_length_errorB8ue170006Ev, symObjAddr: 0x1CDD4, symBinAddr: 0x1000205E0, symSize: 0x14 }
  - { offsetInCU: 0xB78F5, offset: 0xB78F5, size: 0x8, addend: 0x0, symName: __ZNSt3__119__allocate_at_leastB8ue170006INS_9allocatorIN7tinyobj10material_tEEEEENS_19__allocation_resultINS_16allocator_traitsIT_E7pointerEEERS7_m, symObjAddr: 0x1CDE8, symBinAddr: 0x1000205F4, symSize: 0x48 }
  - { offsetInCU: 0xB7924, offset: 0xB7924, size: 0x8, addend: 0x0, symName: __ZNSt3__112basic_stringIcNS_11char_traitsIcEENS_9allocatorIcEEE17__assign_externalEPKcm, symObjAddr: 0x1D2E0, symBinAddr: 0x100020AEC, symSize: 0xBC }
  - { offsetInCU: 0xB805D, offset: 0xB805D, size: 0x8, addend: 0x0, symName: __ZN7tinyobj18MaterialFileReaderclERKNSt3__112basic_stringIcNS1_11char_traitsIcEENS1_9allocatorIcEEEEPNS1_6vectorINS_10material_tENS5_ISB_EEEEPNS1_3mapIS7_iNS1_4lessIS7_EENS5_INS1_4pairIS8_iEEEEEEPS7_SN_, symObjAddr: 0x56E0, symBinAddr: 0x100008EEC, symSize: 0x87C }
  - { offsetInCU: 0xBA871, offset: 0xBA871, size: 0x8, addend: 0x0, symName: __ZNSt3__119basic_istringstreamIcNS_11char_traitsIcEENS_9allocatorIcEEEC1B8ue170006ERKNS_12basic_stringIcS2_S4_EEj, symObjAddr: 0x5F5C, symBinAddr: 0x100009768, symSize: 0xE4 }
  - { offsetInCU: 0xBA951, offset: 0xBA951, size: 0x8, addend: 0x0, symName: __ZNSt3__16vectorINS_12basic_stringIcNS_11char_traitsIcEENS_9allocatorIcEEEENS4_IS6_EEE21__push_back_slow_pathIRKS6_EEvOT_, symObjAddr: 0x1D6A4, symBinAddr: 0x100020EB0, symSize: 0x114 }
  - { offsetInCU: 0xBAC96, offset: 0xBAC96, size: 0x8, addend: 0x0, symName: __ZNSt3__114basic_ifstreamIcNS_11char_traitsIcEEEC1EPKcj, symObjAddr: 0x61C8, symBinAddr: 0x1000099D4, symSize: 0x10C }
  - { offsetInCU: 0xBAD79, offset: 0xBAD79, size: 0x8, addend: 0x0, symName: __ZNSt3__16vectorINS_12basic_stringIcNS_11char_traitsIcEENS_9allocatorIcEEEENS4_IS6_EEE16__destroy_vectorclB8ue170006Ev, symObjAddr: 0x1DB5C, symBinAddr: 0x100021368, symSize: 0x40 }
  - { offsetInCU: 0xBAE5C, offset: 0xBAE5C, size: 0x8, addend: 0x0, symName: __ZNSt3__114basic_ifstreamIcNS_11char_traitsIcEEED1Ev, symObjAddr: 0x62D4, symBinAddr: 0x100009AE0, symSize: 0x58 }
  - { offsetInCU: 0xBAEA4, offset: 0xBAEA4, size: 0x8, addend: 0x0, symName: __ZNSt3__119basic_istringstreamIcNS_11char_traitsIcEENS_9allocatorIcEEED1Ev, symObjAddr: 0x632C, symBinAddr: 0x100009B38, symSize: 0x84 }
  - { offsetInCU: 0xBB084, offset: 0xBB084, size: 0x8, addend: 0x0, symName: __ZNSt3__115basic_stringbufIcNS_11char_traitsIcEENS_9allocatorIcEEEC2B8ue170006ERKNS_12basic_stringIcS2_S4_EEj, symObjAddr: 0x299C4, symBinAddr: 0x10002D1D0, symSize: 0x90 }
  - { offsetInCU: 0xBB296, offset: 0xBB296, size: 0x8, addend: 0x0, symName: __ZN7tinyobj20MaterialStreamReaderclERKNSt3__112basic_stringIcNS1_11char_traitsIcEENS1_9allocatorIcEEEEPNS1_6vectorINS_10material_tENS5_ISB_EEEEPNS1_3mapIS7_iNS1_4lessIS7_EENS5_INS1_4pairIS8_iEEEEEEPS7_SN_, symObjAddr: 0x63B0, symBinAddr: 0x100009BBC, symSize: 0x170 }
  - { offsetInCU: 0xBBAAB, offset: 0xBBAAB, size: 0x8, addend: 0x0, symName: __ZN7tinyobj7shape_tD2Ev, symObjAddr: 0x20518, symBinAddr: 0x100023D24, symSize: 0xB8 }
  - { offsetInCU: 0xBE800, offset: 0xBE800, size: 0x8, addend: 0x0, symName: __ZNSt3__16vectorIN7tinyobj7shape_tENS_9allocatorIS2_EEE9push_backB8ue170006ERKS2_, symObjAddr: 0xD4BC, symBinAddr: 0x100010CC8, symSize: 0x130 }
  - { offsetInCU: 0xBEBE8, offset: 0xBEBE8, size: 0x8, addend: 0x0, symName: __ZN7tinyobj7shape_taSEOS0_, symObjAddr: 0xD5EC, symBinAddr: 0x100010DF8, symSize: 0xC0 }
  - { offsetInCU: 0xBF019, offset: 0xBF019, size: 0x8, addend: 0x0, symName: __ZNSt3__16__treeINS_12__value_typeINS_12basic_stringIcNS_11char_traitsIcEENS_9allocatorIcEEEEiEENS_19__map_value_compareIS7_S8_NS_4lessIS7_EELb1EEENS5_IS8_EEE4findIS7_EENS_15__tree_iteratorIS8_PNS_11__tree_nodeIS8_PvEElEERKT_, symObjAddr: 0x297C8, symBinAddr: 0x10002CFD4, symSize: 0x7C }
  - { offsetInCU: 0xBF18D, offset: 0xBF18D, size: 0x8, addend: 0x0, symName: __ZNKSt3__16__treeINS_12basic_stringIcNS_11char_traitsIcEENS_9allocatorIcEEEENS_4lessIS6_EENS4_IS6_EEE14__count_uniqueIS6_EEmRKT_, symObjAddr: 0x29844, symBinAddr: 0x10002D050, symSize: 0x68 }
  - { offsetInCU: 0xBF25C, offset: 0xBF25C, size: 0x8, addend: 0x0, symName: __ZNSt3__16__treeINS_12basic_stringIcNS_11char_traitsIcEENS_9allocatorIcEEEENS_4lessIS6_EENS4_IS6_EEE25__emplace_unique_key_argsIS6_JRKS6_EEENS_4pairINS_15__tree_iteratorIS6_PNS_11__tree_nodeIS6_PvEElEEbEERKT_DpOT0_, symObjAddr: 0x298AC, symBinAddr: 0x10002D0B8, symSize: 0x7C }
  - { offsetInCU: 0xBF3BB, offset: 0xBF3BB, size: 0x8, addend: 0x0, symName: __ZNSt3__16vectorIN7tinyobj18joint_and_weight_tENS_9allocatorIS2_EEE16__init_with_sizeB8ue170006IPS2_S7_EEvT_T0_m, symObjAddr: 0x1DDEC, symBinAddr: 0x1000215F8, symSize: 0x78 }
  - { offsetInCU: 0xBF7DC, offset: 0xBF7DC, size: 0x8, addend: 0x0, symName: __ZNSt3__16vectorIN7tinyobj13skin_weight_tENS_9allocatorIS2_EEE21__push_back_slow_pathIRKS2_EEvOT_, symObjAddr: 0x1DCFC, symBinAddr: 0x100021508, symSize: 0xF0 }
  - { offsetInCU: 0xBFB47, offset: 0xBFB47, size: 0x8, addend: 0x0, symName: __ZNSt3__16vectorIN7tinyobj14vertex_index_tENS_9allocatorIS2_EEE7reserveEm, symObjAddr: 0xA350, symBinAddr: 0x10000DB5C, symSize: 0xD0 }
  - { offsetInCU: 0xBFE4C, offset: 0xBFE4C, size: 0x8, addend: 0x0, symName: __ZN7tinyobjL19exportGroupsToShapeEPNS_7shape_tERKNS_9PrimGroupERKNSt3__16vectorINS_5tag_tENS5_9allocatorIS7_EEEEiRKNS5_12basic_stringIcNS5_11char_traitsIcEENS8_IcEEEEbRKNS6_IfNS8_IfEEEEPSH_, symObjAddr: 0xA420, symBinAddr: 0x10000DC2C, symSize: 0x2ED8 }
  - { offsetInCU: 0xBFE5D, offset: 0xBFE5D, size: 0x8, addend: 0x0, symName: __ZNSt3__16vectorIiNS_9allocatorIiEEE6resizeEm, symObjAddr: 0xD6AC, symBinAddr: 0x100010EB8, symSize: 0x2C }
  - { offsetInCU: 0xBFEA7, offset: 0xBFEA7, size: 0x8, addend: 0x0, symName: __ZNSt3__16vectorIiNS_9allocatorIiEEE6resizeEm, symObjAddr: 0xD6AC, symBinAddr: 0x100010EB8, symSize: 0x2C }
  - { offsetInCU: 0xBFF1E, offset: 0xBFF1E, size: 0x8, addend: 0x0, symName: __ZNSt3__16vectorIfNS_9allocatorIfEEE6resizeEm, symObjAddr: 0xD6D8, symBinAddr: 0x100010EE4, symSize: 0x2C }
  - { offsetInCU: 0xBFF68, offset: 0xBFF68, size: 0x8, addend: 0x0, symName: __ZNSt3__16vectorIfNS_9allocatorIfEEE6resizeEm, symObjAddr: 0xD6D8, symBinAddr: 0x100010EE4, symSize: 0x2C }
  - { offsetInCU: 0xBFFDF, offset: 0xBFFDF, size: 0x8, addend: 0x0, symName: __ZNSt3__16vectorINS_12basic_stringIcNS_11char_traitsIcEENS_9allocatorIcEEEENS4_IS6_EEE6resizeEm, symObjAddr: 0xD704, symBinAddr: 0x100010F10, symSize: 0x94 }
  - { offsetInCU: 0xC0229, offset: 0xC0229, size: 0x8, addend: 0x0, symName: __ZNSt3__16vectorIN7tinyobj5tag_tENS_9allocatorIS2_EEE9push_backB8ue170006ERKS2_, symObjAddr: 0xD798, symBinAddr: 0x100010FA4, symSize: 0x118 }
  - { offsetInCU: 0xC060B, offset: 0xC060B, size: 0x8, addend: 0x0, symName: __ZNSt3__16vectorIN7tinyobj14vertex_index_tENS_9allocatorIS2_EEE16__init_with_sizeB8ue170006IPS2_S7_EEvT_T0_m, symObjAddr: 0x1E408, symBinAddr: 0x100021C14, symSize: 0x78 }
  - { offsetInCU: 0xC0A2C, offset: 0xC0A2C, size: 0x8, addend: 0x0, symName: __ZNSt3__16vectorIN7tinyobj10__points_tENS_9allocatorIS2_EEE21__push_back_slow_pathIRKS2_EEvOT_, symObjAddr: 0x1E748, symBinAddr: 0x100021F54, symSize: 0x114 }
  - { offsetInCU: 0xC0D95, offset: 0xC0D95, size: 0x8, addend: 0x0, symName: __ZNSt3__16vectorIN7tinyobj8__line_tENS_9allocatorIS2_EEE21__push_back_slow_pathIRKS2_EEvOT_, symObjAddr: 0x1E2F4, symBinAddr: 0x100021B00, symSize: 0x114 }
  - { offsetInCU: 0xC10FE, offset: 0xC10FE, size: 0x8, addend: 0x0, symName: __ZNSt3__16vectorIN7tinyobj6face_tENS_9allocatorIS2_EEE21__push_back_slow_pathIRKS2_EEvOT_, symObjAddr: 0x1EAD4, symBinAddr: 0x1000222E0, symSize: 0x100 }
  - { offsetInCU: 0xC146D, offset: 0xC146D, size: 0x8, addend: 0x0, symName: __ZNSt3__16__treeINS_12__value_typeINS_12basic_stringIcNS_11char_traitsIcEENS_9allocatorIcEEEEiEENS_19__map_value_compareIS7_S8_NS_4lessIS7_EELb1EEENS5_IS8_EEE7destroyEPNS_11__tree_nodeIS8_PvEE, symObjAddr: 0x29778, symBinAddr: 0x10002CF84, symSize: 0x50 }
  - { offsetInCU: 0xC175F, offset: 0xC175F, size: 0x8, addend: 0x0, symName: __ZNSt3__16__treeINS_12basic_stringIcNS_11char_traitsIcEENS_9allocatorIcEEEENS_4lessIS6_EENS4_IS6_EEE7destroyEPNS_11__tree_nodeIS6_PvEE, symObjAddr: 0x250F8, symBinAddr: 0x100028904, symSize: 0x50 }
  - { offsetInCU: 0xC1A17, offset: 0xC1A17, size: 0x8, addend: 0x0, symName: __ZNSt3__16vectorIN7tinyobj10__points_tENS_9allocatorIS2_EEE16__destroy_vectorclB8ue170006Ev, symObjAddr: 0x20B4C, symBinAddr: 0x100024358, symSize: 0x40 }
  - { offsetInCU: 0xC1AFA, offset: 0xC1AFA, size: 0x8, addend: 0x0, symName: __ZNSt3__16vectorIN7tinyobj8__line_tENS_9allocatorIS2_EEE16__destroy_vectorclB8ue170006Ev, symObjAddr: 0x20B8C, symBinAddr: 0x100024398, symSize: 0x40 }
  - { offsetInCU: 0xC1BDD, offset: 0xC1BDD, size: 0x8, addend: 0x0, symName: __ZNSt3__16vectorIN7tinyobj6face_tENS_9allocatorIS2_EEE16__destroy_vectorclB8ue170006Ev, symObjAddr: 0x20BCC, symBinAddr: 0x1000243D8, symSize: 0x40 }
  - { offsetInCU: 0xC1CC0, offset: 0xC1CC0, size: 0x8, addend: 0x0, symName: __ZNSt3__16vectorIN7tinyobj5tag_tENS_9allocatorIS2_EEE16__destroy_vectorclB8ue170006Ev, symObjAddr: 0x20164, symBinAddr: 0x100023970, symSize: 0x70 }
  - { offsetInCU: 0xC1E2D, offset: 0xC1E2D, size: 0x8, addend: 0x0, symName: __ZNSt3__16vectorIN7tinyobj13skin_weight_tENS_9allocatorIS2_EEE16__destroy_vectorclB8ue170006Ev, symObjAddr: 0x20C0C, symBinAddr: 0x100024418, symSize: 0x40 }
  - { offsetInCU: 0xC1F10, offset: 0xC1F10, size: 0x8, addend: 0x0, symName: __ZNKSt3__16vectorIN7tinyobj18joint_and_weight_tENS_9allocatorIS2_EEE20__throw_length_errorB8ue170006Ev, symObjAddr: 0x1DCB4, symBinAddr: 0x1000214C0, symSize: 0x14 }
  - { offsetInCU: 0xC1F3A, offset: 0xC1F3A, size: 0x8, addend: 0x0, symName: __ZNSt3__119__allocate_at_leastB8ue170006INS_9allocatorIN7tinyobj18joint_and_weight_tEEEEENS_19__allocation_resultINS_16allocator_traitsIT_E7pointerEEERS7_m, symObjAddr: 0x1DCC8, symBinAddr: 0x1000214D4, symSize: 0x34 }
  - { offsetInCU: 0xC1F45, offset: 0xC1F45, size: 0x8, addend: 0x0, symName: __ZNKSt3__16vectorIN7tinyobj14vertex_index_tENS_9allocatorIS2_EEE20__throw_length_errorB8ue170006Ev, symObjAddr: 0x1E29C, symBinAddr: 0x100021AA8, symSize: 0x14 }
  - { offsetInCU: 0xC1F6F, offset: 0xC1F6F, size: 0x8, addend: 0x0, symName: __ZNSt3__119__allocate_at_leastB8ue170006INS_9allocatorIN7tinyobj14vertex_index_tEEEEENS_19__allocation_resultINS_16allocator_traitsIT_E7pointerEEERS7_m, symObjAddr: 0x1E2B0, symBinAddr: 0x100021ABC, symSize: 0x44 }
  - { offsetInCU: 0xC1F7A, offset: 0xC1F7A, size: 0x8, addend: 0x0, symName: __ZNKSt3__16vectorIfNS_9allocatorIfEEE20__throw_length_errorB8ue170006Ev, symObjAddr: 0x1DC6C, symBinAddr: 0x100021478, symSize: 0x14 }
  - { offsetInCU: 0xC1FA4, offset: 0xC1FA4, size: 0x8, addend: 0x0, symName: __ZNSt3__119__allocate_at_leastB8ue170006INS_9allocatorIfEEEENS_19__allocation_resultINS_16allocator_traitsIT_E7pointerEEERS5_m, symObjAddr: 0x1DC80, symBinAddr: 0x10002148C, symSize: 0x34 }
  - { offsetInCU: 0xC1FAF, offset: 0xC1FAF, size: 0x8, addend: 0x0, symName: __ZN7tinyobj5tag_tD1Ev, symObjAddr: 0xD8B0, symBinAddr: 0x1000110BC, symSize: 0x68 }
  - { offsetInCU: 0xC2422, offset: 0xC2422, size: 0x8, addend: 0x0, symName: __ZN7tinyobj9PrimGroupD1Ev, symObjAddr: 0xD918, symBinAddr: 0x100011124, symSize: 0x54 }
  - { offsetInCU: 0xC262F, offset: 0xC262F, size: 0x8, addend: 0x0, symName: __ZN7tinyobj18MaterialFileReaderD1Ev, symObjAddr: 0x9E18, symBinAddr: 0x10000D624, symSize: 0x3C }
  - { offsetInCU: 0xC35C8, offset: 0xC35C8, size: 0x8, addend: 0x0, symName: __ZNSt3__16vectorIN7tinyobj5tag_tENS_9allocatorIS2_EEE18__assign_with_sizeB8ue170006IPS2_S7_EEvT_T0_l, symObjAddr: 0x1EED0, symBinAddr: 0x1000226DC, symSize: 0x17C }
  - { offsetInCU: 0xC3BD5, offset: 0xC3BD5, size: 0x8, addend: 0x0, symName: __ZNKSt3__16vectorIN7tinyobj7index_tENS_9allocatorIS2_EEE20__throw_length_errorB8ue170006Ev, symObjAddr: 0x1FFD0, symBinAddr: 0x1000237DC, symSize: 0x14 }
  - { offsetInCU: 0xC3BFF, offset: 0xC3BFF, size: 0x8, addend: 0x0, symName: __ZNSt3__119__allocate_at_leastB8ue170006INS_9allocatorIN7tinyobj7index_tEEEEENS_19__allocation_resultINS_16allocator_traitsIT_E7pointerEEERS7_m, symObjAddr: 0x1FFE4, symBinAddr: 0x1000237F0, symSize: 0x44 }
  - { offsetInCU: 0xC3C0A, offset: 0xC3C0A, size: 0x8, addend: 0x0, symName: __ZNKSt3__16vectorIiNS_9allocatorIiEEE20__throw_length_errorB8ue170006Ev, symObjAddr: 0x1EE88, symBinAddr: 0x100022694, symSize: 0x14 }
  - { offsetInCU: 0xC3C34, offset: 0xC3C34, size: 0x8, addend: 0x0, symName: __ZNSt3__119__allocate_at_leastB8ue170006INS_9allocatorIiEEEENS_19__allocation_resultINS_16allocator_traitsIT_E7pointerEEERS5_m, symObjAddr: 0x1EE9C, symBinAddr: 0x1000226A8, symSize: 0x34 }
  - { offsetInCU: 0xC3C3F, offset: 0xC3C3F, size: 0x8, addend: 0x0, symName: __ZNKSt3__16vectorIjNS_9allocatorIjEEE20__throw_length_errorB8ue170006Ev, symObjAddr: 0x1EE40, symBinAddr: 0x10002264C, symSize: 0x14 }
  - { offsetInCU: 0xC3C69, offset: 0xC3C69, size: 0x8, addend: 0x0, symName: __ZNSt3__119__allocate_at_leastB8ue170006INS_9allocatorIjEEEENS_19__allocation_resultINS_16allocator_traitsIT_E7pointerEEERS5_m, symObjAddr: 0x1EE54, symBinAddr: 0x100022660, symSize: 0x34 }
  - { offsetInCU: 0xC3F76, offset: 0xC3F76, size: 0x8, addend: 0x0, symName: __ZN7tinyobj7shape_tC2ERKS0_, symObjAddr: 0x1FBE0, symBinAddr: 0x1000233EC, symSize: 0x128 }
  - { offsetInCU: 0xC44FB, offset: 0xC44FB, size: 0x8, addend: 0x0, symName: __ZNSt3__114__split_bufferIN7tinyobj7shape_tERNS_9allocatorIS2_EEED2Ev, symObjAddr: 0x203DC, symBinAddr: 0x100023BE8, symSize: 0x4C }
  - { offsetInCU: 0xC46B9, offset: 0xC46B9, size: 0x8, addend: 0x0, symName: __ZNKSt3__16vectorIN7tinyobj7shape_tENS_9allocatorIS2_EEE20__throw_length_errorB8ue170006Ev, symObjAddr: 0x20264, symBinAddr: 0x100023A70, symSize: 0x14 }
  - { offsetInCU: 0xC46E3, offset: 0xC46E3, size: 0x8, addend: 0x0, symName: __ZNSt3__119__allocate_at_leastB8ue170006INS_9allocatorIN7tinyobj7shape_tEEEEENS_19__allocation_resultINS_16allocator_traitsIT_E7pointerEEERS7_m, symObjAddr: 0x20278, symBinAddr: 0x100023A84, symSize: 0x48 }
  - { offsetInCU: 0xC4841, offset: 0xC4841, size: 0x8, addend: 0x0, symName: __ZNSt3__16vectorIN7tinyobj7index_tENS_9allocatorIS2_EEE13__move_assignERS5_NS_17integral_constantIbLb1EEE, symObjAddr: 0x20428, symBinAddr: 0x100023C34, symSize: 0x50 }
  - { offsetInCU: 0xC49C4, offset: 0xC49C4, size: 0x8, addend: 0x0, symName: __ZNSt3__16vectorIjNS_9allocatorIjEEE13__move_assignERS3_NS_17integral_constantIbLb1EEE, symObjAddr: 0x20478, symBinAddr: 0x100023C84, symSize: 0x50 }
  - { offsetInCU: 0xC4B47, offset: 0xC4B47, size: 0x8, addend: 0x0, symName: __ZNSt3__16vectorIiNS_9allocatorIiEEE13__move_assignERS3_NS_17integral_constantIbLb1EEE, symObjAddr: 0x204C8, symBinAddr: 0x100023CD4, symSize: 0x50 }
  - { offsetInCU: 0xC4CCA, offset: 0xC4CCA, size: 0x8, addend: 0x0, symName: __ZNSt3__16vectorIN7tinyobj5tag_tENS_9allocatorIS2_EEE13__vdeallocateEv, symObjAddr: 0x1F04C, symBinAddr: 0x100022858, symSize: 0x64 }
  - { offsetInCU: 0xC4EB8, offset: 0xC4EB8, size: 0x8, addend: 0x0, symName: __ZNSt3__16vectorIiNS_9allocatorIiEEE8__appendEm, symObjAddr: 0x20678, symBinAddr: 0x100023E84, symSize: 0x108 }
  - { offsetInCU: 0xC52B5, offset: 0xC52B5, size: 0x8, addend: 0x0, symName: __ZNSt3__16vectorIfNS_9allocatorIfEEE8__appendEm, symObjAddr: 0x20780, symBinAddr: 0x100023F8C, symSize: 0x108 }
  - { offsetInCU: 0xC52F5, offset: 0xC52F5, size: 0x8, addend: 0x0, symName: __ZNSt3__16vectorIfNS_9allocatorIfEEE8__appendEm, symObjAddr: 0x20780, symBinAddr: 0x100023F8C, symSize: 0x108 }
  - { offsetInCU: 0xC56F2, offset: 0xC56F2, size: 0x8, addend: 0x0, symName: __ZNSt3__16vectorINS_12basic_stringIcNS_11char_traitsIcEENS_9allocatorIcEEEENS4_IS6_EEE8__appendEm, symObjAddr: 0x20888, symBinAddr: 0x100024094, symSize: 0x16C }
  - { offsetInCU: 0xC5789, offset: 0xC5789, size: 0x8, addend: 0x0, symName: __ZNSt3__16vectorINS_12basic_stringIcNS_11char_traitsIcEENS_9allocatorIcEEEENS4_IS6_EEE8__appendEm, symObjAddr: 0x20888, symBinAddr: 0x100024094, symSize: 0x16C }
  - { offsetInCU: 0xC5E92, offset: 0xC5E92, size: 0x8, addend: 0x0, symName: __ZN7tinyobj5tag_tC2ERKS0_, symObjAddr: 0x1F180, symBinAddr: 0x10002298C, symSize: 0x108 }
  - { offsetInCU: 0xC645C, offset: 0xC645C, size: 0x8, addend: 0x0, symName: __ZNSt3__114__split_bufferIN7tinyobj5tag_tERNS_9allocatorIS2_EEED2Ev, symObjAddr: 0x20B00, symBinAddr: 0x10002430C, symSize: 0x4C }
  - { offsetInCU: 0xC65E2, offset: 0xC65E2, size: 0x8, addend: 0x0, symName: __ZNKSt3__16vectorIN7tinyobj5tag_tENS_9allocatorIS2_EEE20__throw_length_errorB8ue170006Ev, symObjAddr: 0x1FB34, symBinAddr: 0x100023340, symSize: 0x14 }
  - { offsetInCU: 0xC660C, offset: 0xC660C, size: 0x8, addend: 0x0, symName: __ZNSt3__119__allocate_at_leastB8ue170006INS_9allocatorIN7tinyobj5tag_tEEEEENS_19__allocation_resultINS_16allocator_traitsIT_E7pointerEEERS7_m, symObjAddr: 0x1FB48, symBinAddr: 0x100023354, symSize: 0x44 }
  - { offsetInCU: 0xC6987, offset: 0xC6987, size: 0x8, addend: 0x0, symName: __ZNSt3__16vectorINS_12basic_stringIcNS_11char_traitsIcEENS_9allocatorIcEEEENS4_IS6_EEE7reserveEm, symObjAddr: 0xEAC8, symBinAddr: 0x1000122D4, symSize: 0xB0 }
  - { offsetInCU: 0xC6B3E, offset: 0xC6B3E, size: 0x8, addend: 0x0, symName: __ZNSt3__16vectorIPKcNS_9allocatorIS2_EEE6resizeEm, symObjAddr: 0xEB78, symBinAddr: 0x100012384, symSize: 0x2C }
  - { offsetInCU: 0xC6B88, offset: 0xC6B88, size: 0x8, addend: 0x0, symName: __ZNSt3__16vectorIPKcNS_9allocatorIS2_EEE6resizeEm, symObjAddr: 0xEB78, symBinAddr: 0x100012384, symSize: 0x2C }
  - { offsetInCU: 0xC6BFF, offset: 0xC6BFF, size: 0x8, addend: 0x0, symName: __ZNSt3__16vectorIN7tinyobj10material_tENS_9allocatorIS2_EEE16__destroy_vectorclB8ue170006Ev, symObjAddr: 0x20E10, symBinAddr: 0x10002461C, symSize: 0x70 }
  - { offsetInCU: 0xC6D9E, offset: 0xC6D9E, size: 0x8, addend: 0x0, symName: __ZNKSt3__16vectorIPKcNS_9allocatorIS2_EEE20__throw_out_of_rangeB8ue170006Ev, symObjAddr: 0x20DFC, symBinAddr: 0x100024608, symSize: 0x14 }
  - { offsetInCU: 0xC6DC8, offset: 0xC6DC8, size: 0x8, addend: 0x0, symName: __ZNSt3__16vectorIN7tinyobj10material_tENS_9allocatorIS2_EEE16__destroy_vectorclB8ue170006Ev, symObjAddr: 0x20E10, symBinAddr: 0x10002461C, symSize: 0x70 }
  - { offsetInCU: 0xC6DD3, offset: 0xC6DD3, size: 0x8, addend: 0x0, symName: __ZNKSt3__16vectorIN7tinyobj10material_tENS_9allocatorIS2_EEE20__throw_out_of_rangeB8ue170006Ev, symObjAddr: 0x20CA0, symBinAddr: 0x1000244AC, symSize: 0x14 }
  - { offsetInCU: 0xC6DFD, offset: 0xC6DFD, size: 0x8, addend: 0x0, symName: __ZNSt3__16vectorIPKcNS_9allocatorIS2_EEE8__appendEm, symObjAddr: 0x20CB4, symBinAddr: 0x1000244C0, symSize: 0x100 }
  - { offsetInCU: 0xC6F7D, offset: 0xC6F7D, size: 0x8, addend: 0x0, symName: __ZNSt3__114__split_bufferINS_12basic_stringIcNS_11char_traitsIcEENS_9allocatorIcEEEERNS4_IS6_EEED2Ev, symObjAddr: 0x1D998, symBinAddr: 0x1000211A4, symSize: 0x34 }
  - { offsetInCU: 0xC708A, offset: 0xC708A, size: 0x8, addend: 0x0, symName: __ZNKSt3__16vectorINS_12basic_stringIcNS_11char_traitsIcEENS_9allocatorIcEEEENS4_IS6_EEE20__throw_length_errorB8ue170006Ev, symObjAddr: 0x1D82C, symBinAddr: 0x100021038, symSize: 0x14 }
  - { offsetInCU: 0xC70B4, offset: 0xC70B4, size: 0x8, addend: 0x0, symName: __ZNSt3__119__allocate_at_leastB8ue170006INS_9allocatorINS_12basic_stringIcNS_11char_traitsIcEENS1_IcEEEEEEEENS_19__allocation_resultINS_16allocator_traitsIT_E7pointerEEERSA_m, symObjAddr: 0x1D840, symBinAddr: 0x10002104C, symSize: 0x44 }
  - { offsetInCU: 0xC70EE, offset: 0xC70EE, size: 0x8, addend: 0x0, symName: __ZNSt3__16vectorIPKcNS_9allocatorIS2_EEE8__appendEm, symObjAddr: 0x20CB4, symBinAddr: 0x1000244C0, symSize: 0x100 }
  - { offsetInCU: 0xC7513, offset: 0xC7513, size: 0x8, addend: 0x0, symName: __ZNKSt3__16vectorIPKcNS_9allocatorIS2_EEE20__throw_length_errorB8ue170006Ev, symObjAddr: 0x20DB4, symBinAddr: 0x1000245C0, symSize: 0x14 }
  - { offsetInCU: 0xC7524, offset: 0xC7524, size: 0x8, addend: 0x0, symName: __ZNSt3__16vectorIPKcNS_9allocatorIS2_EEED1B8ue170006Ev, symObjAddr: 0xEBA4, symBinAddr: 0x1000123B0, symSize: 0x30 }
  - { offsetInCU: 0xC76E3, offset: 0xC76E3, size: 0x8, addend: 0x0, symName: __ZN7tinyobj9ObjReader13ParseFromFileERKNSt3__112basic_stringIcNS1_11char_traitsIcEENS1_9allocatorIcEEEERKNS_15ObjReaderConfigE, symObjAddr: 0xEBD4, symBinAddr: 0x1000123E0, symSize: 0x148 }
  - { offsetInCU: 0xC7D85, offset: 0xC7D85, size: 0x8, addend: 0x0, symName: __ZN7tinyobj9ObjReader15ParseFromStringERKNSt3__112basic_stringIcNS1_11char_traitsIcEENS1_9allocatorIcEEEES9_RKNS_15ObjReaderConfigE, symObjAddr: 0xED1C, symBinAddr: 0x100012528, symSize: 0x1A8 }
  - { offsetInCU: 0xC82EA, offset: 0xC82EA, size: 0x8, addend: 0x0, symName: __ZNSt3__115basic_stringbufIcNS_11char_traitsIcEENS_9allocatorIcEEED1Ev, symObjAddr: 0xEEC8, symBinAddr: 0x1000126D4, symSize: 0x40 }
  - { offsetInCU: 0xC8455, offset: 0xC8455, size: 0x8, addend: 0x0, symName: __ZN7tinyobj20MaterialStreamReaderD1Ev, symObjAddr: 0xEEC4, symBinAddr: 0x1000126D0, symSize: 0x4 }
  - { offsetInCU: 0xC8526, offset: 0xC8526, size: 0x8, addend: 0x0, symName: __ZN4cellD1Ev, symObjAddr: 0xEF08, symBinAddr: 0x100012714, symSize: 0x48 }
  - { offsetInCU: 0xC8720, offset: 0xC8720, size: 0x8, addend: 0x0, symName: __ZNSt3__16vectorI4cellNS_9allocatorIS1_EEE16__destroy_vectorclB8ue170006Ev, symObjAddr: 0x20E80, symBinAddr: 0x10002468C, symSize: 0x40 }
  - { offsetInCU: 0xC88D0, offset: 0xC88D0, size: 0x8, addend: 0x0, symName: __ZN11environmentD1Ev, symObjAddr: 0xEF50, symBinAddr: 0x10001275C, symSize: 0x28 }
  - { offsetInCU: 0xC89B3, offset: 0xC89B3, size: 0x8, addend: 0x0, symName: __ZNSt3__16__treeINS_12__value_typeINS_12basic_stringIcNS_11char_traitsIcEENS_9allocatorIcEEEE4cellEENS_19__map_value_compareIS7_S9_NS_4lessIS7_EELb1EEENS5_IS9_EEE7destroyEPNS_11__tree_nodeIS9_PvEE, symObjAddr: 0x20F30, symBinAddr: 0x10002473C, symSize: 0x48 }
  - { offsetInCU: 0xC8B5A, offset: 0xC8B5A, size: 0x8, addend: 0x0, symName: __ZNSt3__15arrayINS_12basic_stringIcNS_11char_traitsIcEENS_9allocatorIcEEEELm3EED1Ev, symObjAddr: 0xEF78, symBinAddr: 0x100012784, symSize: 0x44 }
  - { offsetInCU: 0xC8D0E, offset: 0xC8D0E, size: 0x8, addend: 0x0, symName: __Z28CreateDebugUtilsMessengerEXTP12VkInstance_TPK34VkDebugUtilsMessengerCreateInfoEXTPK21VkAllocationCallbacksPP26VkDebugUtilsMessengerEXT_T, symObjAddr: 0xEFBC, symBinAddr: 0x1000127C8, symSize: 0x68 }
  - { offsetInCU: 0xC8DDB, offset: 0xC8DDB, size: 0x8, addend: 0x0, symName: __Z29DestroyDebugUtilsMessengerEXTP12VkInstance_TP26VkDebugUtilsMessengerEXT_TPK21VkAllocationCallbacks, symObjAddr: 0xF024, symBinAddr: 0x100012830, symSize: 0x5C }
  - { offsetInCU: 0xC918D, offset: 0xC918D, size: 0x8, addend: 0x0, symName: _main, symObjAddr: 0xF080, symBinAddr: 0x10001288C, symSize: 0x124 }
  - { offsetInCU: 0xC956B, offset: 0xC956B, size: 0x8, addend: 0x0, symName: __ZN24HelloTriangleApplication3runEv, symObjAddr: 0xF1A4, symBinAddr: 0x1000129B0, symSize: 0x40 }
  - { offsetInCU: 0xC9606, offset: 0xC9606, size: 0x8, addend: 0x0, symName: __ZN24HelloTriangleApplicationD2Ev, symObjAddr: 0x28F94, symBinAddr: 0x10002C7A0, symSize: 0x18C }
  - { offsetInCU: 0xCB2BB, offset: 0xCB2BB, size: 0x8, addend: 0x0, symName: __ZN24HelloTriangleApplication10initWindowEv, symObjAddr: 0x2100C, symBinAddr: 0x100024818, symSize: 0x128 }
  - { offsetInCU: 0xCB46C, offset: 0xCB46C, size: 0x8, addend: 0x0, symName: __ZN24HelloTriangleApplication10initVulkanEv, symObjAddr: 0x21134, symBinAddr: 0x100024940, symSize: 0xD4 }
  - { offsetInCU: 0xCB681, offset: 0xCB681, size: 0x8, addend: 0x0, symName: __ZN24HelloTriangleApplication17LoadLispVariablesEv, symObjAddr: 0x21208, symBinAddr: 0x100024A14, symSize: 0x1BC }
  - { offsetInCU: 0xCC5FD, offset: 0xCC5FD, size: 0x8, addend: 0x0, symName: __ZN24HelloTriangleApplication8mainLoopEv, symObjAddr: 0x213C4, symBinAddr: 0x100024BD0, symSize: 0xC4 }
  - { offsetInCU: 0xCC818, offset: 0xCC818, size: 0x8, addend: 0x0, symName: __ZN24HelloTriangleApplication7cleanupEv, symObjAddr: 0x21488, symBinAddr: 0x100024C94, symSize: 0x208 }
  - { offsetInCU: 0xCCC84, offset: 0xCCC84, size: 0x8, addend: 0x0, symName: __ZN7tinyobj18MaterialFileReaderD0Ev, symObjAddr: 0xF280, symBinAddr: 0x100012A8C, symSize: 0x3C }
  - { offsetInCU: 0xCCE0D, offset: 0xCCE0D, size: 0x8, addend: 0x0, symName: __ZN7tinyobj20MaterialStreamReaderD0Ev, symObjAddr: 0xF2BC, symBinAddr: 0x100012AC8, symSize: 0x4 }
  - { offsetInCU: 0xCCE36, offset: 0xCCE36, size: 0x8, addend: 0x0, symName: __ZL16stbi__stdio_readPvPci, symObjAddr: 0xF2C0, symBinAddr: 0x100012ACC, symSize: 0x24 }
  - { offsetInCU: 0xCCE86, offset: 0xCCE86, size: 0x8, addend: 0x0, symName: __ZL16stbi__stdio_skipPvi, symObjAddr: 0xF2E4, symBinAddr: 0x100012AF0, symSize: 0x48 }
  - { offsetInCU: 0xCCF3F, offset: 0xCCF3F, size: 0x8, addend: 0x0, symName: __ZL15stbi__stdio_eofPv, symObjAddr: 0xF32C, symBinAddr: 0x100012B38, symSize: 0x3C }
  - { offsetInCU: 0xCD695, offset: 0xCD695, size: 0x8, addend: 0x0, symName: __ZL13stbi__get16leP13stbi__context, symObjAddr: 0x16C54, symBinAddr: 0x10001A460, symSize: 0x84 }
  - { offsetInCU: 0xCD738, offset: 0xCD738, size: 0x8, addend: 0x0, symName: __ZL14stbi__pic_testP13stbi__context, symObjAddr: 0x10E00, symBinAddr: 0x10001460C, symSize: 0x84 }
  - { offsetInCU: 0xCD819, offset: 0xCD819, size: 0x8, addend: 0x0, symName: __ZL14stbi__pic_loadP13stbi__contextPiS1_S1_iP17stbi__result_info, symObjAddr: 0x10E84, symBinAddr: 0x100014690, symSize: 0x6D8 }
  - { offsetInCU: 0xCDF1F, offset: 0xCDF1F, size: 0x8, addend: 0x0, symName: __ZL22stbi__convert_format16Ptiijj, symObjAddr: 0x15AE8, symBinAddr: 0x1000192F4, symSize: 0x3B8 }
  - { offsetInCU: 0xCE0F7, offset: 0xCE0F7, size: 0x8, addend: 0x0, symName: __ZL10stbi__skipP13stbi__contexti, symObjAddr: 0x15EA0, symBinAddr: 0x1000196AC, symSize: 0x4C }
  - { offsetInCU: 0xCE102, offset: 0xCE102, size: 0x8, addend: 0x0, symName: __ZL15stbi__jpeg_testP13stbi__context, symObjAddr: 0x1155C, symBinAddr: 0x100014D68, symSize: 0xE4 }
  - { offsetInCU: 0xCE234, offset: 0xCE234, size: 0x8, addend: 0x0, symName: __ZL15stbi__jpeg_loadP13stbi__contextPiS1_S1_iP17stbi__result_info, symObjAddr: 0x11640, symBinAddr: 0x100014E4C, symSize: 0x1C6C }
  - { offsetInCU: 0xCF0B5, offset: 0xCF0B5, size: 0x8, addend: 0x0, symName: __ZL14stbi__pnm_testP13stbi__context, symObjAddr: 0x132AC, symBinAddr: 0x100016AB8, symSize: 0xA4 }
  - { offsetInCU: 0xCF182, offset: 0xCF182, size: 0x8, addend: 0x0, symName: __ZL14stbi__pnm_loadP13stbi__contextPiS1_S1_iP17stbi__result_info, symObjAddr: 0x13350, symBinAddr: 0x100016B5C, symSize: 0x1C0 }
  - { offsetInCU: 0xCF31F, offset: 0xCF31F, size: 0x8, addend: 0x0, symName: __ZL13stbi__get32beP13stbi__context, symObjAddr: 0x15EEC, symBinAddr: 0x1000196F8, symSize: 0x30 }
  - { offsetInCU: 0xCF370, offset: 0xCF370, size: 0x8, addend: 0x0, symName: __ZL10stbi__skipP13stbi__contexti, symObjAddr: 0x15EA0, symBinAddr: 0x1000196AC, symSize: 0x4C }
  - { offsetInCU: 0xCF3BC, offset: 0xCF3BC, size: 0x8, addend: 0x0, symName: __ZL21stbi__mad3sizes_validiiii, symObjAddr: 0x16AD0, symBinAddr: 0x10001A2DC, symSize: 0x58 }
  - { offsetInCU: 0xCF3F1, offset: 0xCF3F1, size: 0x8, addend: 0x0, symName: __ZL21stbi__mad3sizes_validiiii, symObjAddr: 0x16AD0, symBinAddr: 0x10001A2DC, symSize: 0x58 }
  - { offsetInCU: 0xCF45B, offset: 0xCF45B, size: 0x8, addend: 0x0, symName: __ZL17stbi__malloc_mad3iiii, symObjAddr: 0x16A78, symBinAddr: 0x10001A284, symSize: 0x58 }
  - { offsetInCU: 0xCF502, offset: 0xCF502, size: 0x8, addend: 0x0, symName: __ZL16stbi__hdr_to_ldrPfiii, symObjAddr: 0x13B3C, symBinAddr: 0x100017348, symSize: 0x1AC }
  - { offsetInCU: 0xCF64B, offset: 0xCF64B, size: 0x8, addend: 0x0, symName: __ZL14stbi__tga_testP13stbi__context, symObjAddr: 0x13CE8, symBinAddr: 0x1000174F4, symSize: 0x280 }
  - { offsetInCU: 0xCF8B8, offset: 0xCF8B8, size: 0x8, addend: 0x0, symName: __ZL14stbi__tga_loadP13stbi__contextPiS1_S1_iP17stbi__result_info, symObjAddr: 0x13F68, symBinAddr: 0x100017774, symSize: 0x880 }
  - { offsetInCU: 0xD00BF, offset: 0xD00BF, size: 0x8, addend: 0x0, symName: __ZL22stbi__check_png_headerP13stbi__context, symObjAddr: 0x147E8, symBinAddr: 0x100017FF4, symSize: 0xA8 }
  - { offsetInCU: 0xD00CA, offset: 0xD00CA, size: 0x8, addend: 0x0, symName: __ZL14stbi__high_bitj, symObjAddr: 0x1714C, symBinAddr: 0x10001A958, symSize: 0x6C }
  - { offsetInCU: 0xD010B, offset: 0xD010B, size: 0x8, addend: 0x0, symName: __ZL14stbi__bitcountj, symObjAddr: 0x171B8, symBinAddr: 0x10001A9C4, symSize: 0x38 }
  - { offsetInCU: 0xD013B, offset: 0xD013B, size: 0x8, addend: 0x0, symName: __ZL20stbi__psd_decode_rleP13stbi__contextPhi, symObjAddr: 0x17FB4, symBinAddr: 0x10001B7C0, symSize: 0x144 }
  - { offsetInCU: 0xD02C9, offset: 0xD02C9, size: 0x8, addend: 0x0, symName: __ZL13stbi__pic_is4P13stbi__contextPKc, symObjAddr: 0x180F8, symBinAddr: 0x10001B904, symSize: 0x84 }
  - { offsetInCU: 0xD05CA, offset: 0xD05CA, size: 0x8, addend: 0x0, symName: __ZL13stbi__readvalP13stbi__contextiPh, symObjAddr: 0x1817C, symBinAddr: 0x10001B988, symSize: 0xD8 }
  - { offsetInCU: 0xD0710, offset: 0xD0710, size: 0x8, addend: 0x0, symName: __ZL16stbi__get_markerP10stbi__jpeg, symObjAddr: 0x1894C, symBinAddr: 0x10001C158, symSize: 0xBC }
  - { offsetInCU: 0xD0FBF, offset: 0xD0FBF, size: 0x8, addend: 0x0, symName: __ZL24stbi__grow_buffer_unsafeP10stbi__jpeg, symObjAddr: 0x19CEC, symBinAddr: 0x10001D4F8, symSize: 0x128 }
  - { offsetInCU: 0xD1097, offset: 0xD1097, size: 0x8, addend: 0x0, symName: __ZL31stbi__jpeg_decode_block_prog_dcP10stbi__jpegPsP13stbi__huffmani, symObjAddr: 0x19E14, symBinAddr: 0x10001D620, symSize: 0x248 }
  - { offsetInCU: 0xD1255, offset: 0xD1255, size: 0x8, addend: 0x0, symName: __ZL22stbi__jpeg_huff_decodeP10stbi__jpegP13stbi__huffman, symObjAddr: 0x1A05C, symBinAddr: 0x10001D868, symSize: 0x12C }
  - { offsetInCU: 0xD12F9, offset: 0xD12F9, size: 0x8, addend: 0x0, symName: __ZL14stbi__pnm_infoP13stbi__contextPiS1_S1_, symObjAddr: 0x1A188, symBinAddr: 0x10001D994, symSize: 0x1D4 }
  - { offsetInCU: 0xD1304, offset: 0xD1304, size: 0x8, addend: 0x0, symName: __ZL23stbi__jpeg_decode_blockP10stbi__jpegPsP13stbi__huffmanS3_S1_iPt, symObjAddr: 0x199EC, symBinAddr: 0x10001D1F8, symSize: 0x300 }
  - { offsetInCU: 0xD157E, offset: 0xD157E, size: 0x8, addend: 0x0, symName: __ZL26stbi__free_jpeg_componentsP10stbi__jpegii, symObjAddr: 0x19830, symBinAddr: 0x10001D03C, symSize: 0x6C }
  - { offsetInCU: 0xD15DE, offset: 0xD15DE, size: 0x8, addend: 0x0, symName: __ZL21stbi__mad4sizes_validiiiii, symObjAddr: 0x1A35C, symBinAddr: 0x10001DB68, symSize: 0x6C }
  - { offsetInCU: 0xD164C, offset: 0xD164C, size: 0x8, addend: 0x0, symName: __ZL21stbi__mad4sizes_validiiiii, symObjAddr: 0x1A35C, symBinAddr: 0x10001DB68, symSize: 0x6C }
  - { offsetInCU: 0xD16B6, offset: 0xD16B6, size: 0x8, addend: 0x0, symName: __ZL10stbi__getnP13stbi__contextPhi, symObjAddr: 0x15FA0, symBinAddr: 0x1000197AC, symSize: 0xB4 }
  - { offsetInCU: 0xD17A0, offset: 0xD17A0, size: 0x8, addend: 0x0, symName: __ZL18stbi__hdr_gettokenP13stbi__contextPc, symObjAddr: 0x1A644, symBinAddr: 0x10001DE50, symSize: 0x160 }
  - { offsetInCU: 0xD18E9, offset: 0xD18E9, size: 0x8, addend: 0x0, symName: __ZL10stbi__get8P13stbi__context, symObjAddr: 0x14890, symBinAddr: 0x10001809C, symSize: 0x50 }
  - { offsetInCU: 0xD191B, offset: 0xD191B, size: 0x8, addend: 0x0, symName: __ZL17stbi__hdr_convertPfPhi, symObjAddr: 0x1A7A4, symBinAddr: 0x10001DFB0, symSize: 0x108 }
  - { offsetInCU: 0xD1A44, offset: 0xD1A44, size: 0x8, addend: 0x0, symName: __ZL17stbi__malloc_mad2iii, symObjAddr: 0x16B28, symBinAddr: 0x10001A334, symSize: 0x40 }
  - { offsetInCU: 0xD1A72, offset: 0xD1A72, size: 0x8, addend: 0x0, symName: __ZL17stbi__malloc_mad2iii, symObjAddr: 0x16B28, symBinAddr: 0x10001A334, symSize: 0x40 }
  - { offsetInCU: 0xD1A9C, offset: 0xD1A9C, size: 0x8, addend: 0x0, symName: __ZL17stbi__malloc_mad2iii, symObjAddr: 0x16B28, symBinAddr: 0x10001A334, symSize: 0x40 }
  - { offsetInCU: 0xD1B00, offset: 0xD1B00, size: 0x8, addend: 0x0, symName: __ZL14stbi__tga_loadP13stbi__contextPiS1_S1_iP17stbi__result_info.cold.1, symObjAddr: 0x29BB4, symBinAddr: 0x100032EFC, symSize: 0x28 }
  - { offsetInCU: 0xD1B18, offset: 0xD1B18, size: 0x8, addend: 0x0, symName: __ZL14stbi__tga_loadP13stbi__contextPiS1_S1_iP17stbi__result_info.cold.2, symObjAddr: 0x29BDC, symBinAddr: 0x100032F24, symSize: 0x28 }
  - { offsetInCU: 0xD1D6F, offset: 0xD1D6F, size: 0x8, addend: 0x0, symName: __ZL26stbi__create_png_image_rawP9stbi__pngPhjijjii, symObjAddr: 0x162D4, symBinAddr: 0x100019AE0, symSize: 0x7A4 }
  - { offsetInCU: 0xD21DE, offset: 0xD21DE, size: 0x8, addend: 0x0, symName: __ZL17stbi__malloc_mad3iiii, symObjAddr: 0x16A78, symBinAddr: 0x10001A284, symSize: 0x58 }
  - { offsetInCU: 0xD21E9, offset: 0xD21E9, size: 0x8, addend: 0x0, symName: __ZL28stbi__compute_transparency16P9stbi__pngPti, symObjAddr: 0x16054, symBinAddr: 0x100019860, symSize: 0xA4 }
  - { offsetInCU: 0xD2281, offset: 0xD2281, size: 0x8, addend: 0x0, symName: __ZL26stbi__compute_transparencyP9stbi__pngPhi, symObjAddr: 0x160F8, symBinAddr: 0x100019904, symSize: 0xA4 }
  - { offsetInCU: 0xD228C, offset: 0xD228C, size: 0x8, addend: 0x0, symName: __ZL26stbi__compute_transparencyP9stbi__pngPhi, symObjAddr: 0x160F8, symBinAddr: 0x100019904, symSize: 0xA4 }
  - { offsetInCU: 0xD2324, offset: 0xD2324, size: 0x8, addend: 0x0, symName: __ZL15stbi__de_iphoneP9stbi__png, symObjAddr: 0x1619C, symBinAddr: 0x1000199A8, symSize: 0x138 }
  - { offsetInCU: 0xD232F, offset: 0xD232F, size: 0x8, addend: 0x0, symName: __ZL15stbi__de_iphoneP9stbi__png, symObjAddr: 0x1619C, symBinAddr: 0x1000199A8, symSize: 0x138 }
  - { offsetInCU: 0xD2443, offset: 0xD2443, size: 0x8, addend: 0x0, symName: __ZL26stbi__create_png_image_rawP9stbi__pngPhjijjii, symObjAddr: 0x162D4, symBinAddr: 0x100019AE0, symSize: 0x7A4 }
  - { offsetInCU: 0xD244E, offset: 0xD244E, size: 0x8, addend: 0x0, symName: __ZL20stbi__convert_formatPhiijj.cold.1, symObjAddr: 0x29C04, symBinAddr: 0x100032F4C, symSize: 0x28 }
  - { offsetInCU: 0xD2466, offset: 0xD2466, size: 0x8, addend: 0x0, symName: __ZL20stbi__convert_formatPhiijj.cold.2, symObjAddr: 0x29C2C, symBinAddr: 0x100032F74, symSize: 0x28 }
  - { offsetInCU: 0xD24B5, offset: 0xD24B5, size: 0x8, addend: 0x0, symName: __ZL22stbi__convert_format16Ptiijj.cold.1, symObjAddr: 0x29C54, symBinAddr: 0x100032F9C, symSize: 0x28 }
  - { offsetInCU: 0xD24CD, offset: 0xD24CD, size: 0x8, addend: 0x0, symName: __ZL22stbi__convert_format16Ptiijj.cold.2, symObjAddr: 0x29C7C, symBinAddr: 0x100032FC4, symSize: 0x28 }
  - { offsetInCU: 0xD24E5, offset: 0xD24E5, size: 0x8, addend: 0x0, symName: __ZL28stbi__compute_transparency16P9stbi__pngPti.cold.1, symObjAddr: 0x29CA4, symBinAddr: 0x100032FEC, symSize: 0x28 }
  - { offsetInCU: 0xD24FD, offset: 0xD24FD, size: 0x8, addend: 0x0, symName: __ZL26stbi__compute_transparencyP9stbi__pngPhi.cold.1, symObjAddr: 0x29CCC, symBinAddr: 0x100033014, symSize: 0x28 }
  - { offsetInCU: 0xD2515, offset: 0xD2515, size: 0x8, addend: 0x0, symName: __ZL15stbi__de_iphoneP9stbi__png.cold.1, symObjAddr: 0x29CF4, symBinAddr: 0x10003303C, symSize: 0x28 }
  - { offsetInCU: 0xD2607, offset: 0xD2607, size: 0x8, addend: 0x0, symName: __ZL30stbi__create_png_alpha_expand8PhS_ji, symObjAddr: 0x16B68, symBinAddr: 0x10001A374, symSize: 0xBC }
  - { offsetInCU: 0xD2677, offset: 0xD2677, size: 0x8, addend: 0x0, symName: __ZL13stbi__get32leP13stbi__context, symObjAddr: 0x16C24, symBinAddr: 0x10001A430, symSize: 0x30 }
  - { offsetInCU: 0xD2682, offset: 0xD2682, size: 0x8, addend: 0x0, symName: __ZL26stbi__create_png_image_rawP9stbi__pngPhjijjii.cold.4, symObjAddr: 0x29D94, symBinAddr: 0x1000330DC, symSize: 0x28 }
  - { offsetInCU: 0xD269A, offset: 0xD269A, size: 0x8, addend: 0x0, symName: __ZL26stbi__create_png_image_rawP9stbi__pngPhjijjii.cold.1, symObjAddr: 0x29D1C, symBinAddr: 0x100033064, symSize: 0x28 }
  - { offsetInCU: 0xD26B2, offset: 0xD26B2, size: 0x8, addend: 0x0, symName: __ZL26stbi__create_png_image_rawP9stbi__pngPhjijjii.cold.3, symObjAddr: 0x29D6C, symBinAddr: 0x1000330B4, symSize: 0x28 }
  - { offsetInCU: 0xD26CA, offset: 0xD26CA, size: 0x8, addend: 0x0, symName: __ZL26stbi__create_png_image_rawP9stbi__pngPhjijjii.cold.2, symObjAddr: 0x29D44, symBinAddr: 0x10003308C, symSize: 0x28 }
  - { offsetInCU: 0xD26E2, offset: 0xD26E2, size: 0x8, addend: 0x0, symName: __ZL30stbi__create_png_alpha_expand8PhS_ji.cold.1, symObjAddr: 0x29DBC, symBinAddr: 0x100033104, symSize: 0x28 }
  - { offsetInCU: 0xD26FA, offset: 0xD26FA, size: 0x8, addend: 0x0, symName: __ZL13stbi__get32leP13stbi__context, symObjAddr: 0x16C24, symBinAddr: 0x10001A430, symSize: 0x30 }
  - { offsetInCU: 0xD277D, offset: 0xD277D, size: 0x8, addend: 0x0, symName: __ZL27stbi__bmp_set_mask_defaultsP14stbi__bmp_datai, symObjAddr: 0x17254, symBinAddr: 0x10001AA60, symSize: 0x54 }
  - { offsetInCU: 0xD27A0, offset: 0xD27A0, size: 0x8, addend: 0x0, symName: __ZL17stbi__shiftsignedjii.cold.1, symObjAddr: 0x29DE4, symBinAddr: 0x10003312C, symSize: 0x28 }
  - { offsetInCU: 0xD27B8, offset: 0xD27B8, size: 0x8, addend: 0x0, symName: __ZL17stbi__shiftsignedjii.cold.2, symObjAddr: 0x29E0C, symBinAddr: 0x100033154, symSize: 0x28 }
  - { offsetInCU: 0xD28AD, offset: 0xD28AD, size: 0x8, addend: 0x0, symName: __ZL26stbi__gif_parse_colortableP13stbi__contextPA4_hii, symObjAddr: 0x17DA8, symBinAddr: 0x10001B5B4, symSize: 0xE0 }
  - { offsetInCU: 0xD29AD, offset: 0xD29AD, size: 0x8, addend: 0x0, symName: __ZL18stbi__out_gif_codeP9stbi__gift, symObjAddr: 0x17E88, symBinAddr: 0x10001B694, symSize: 0x12C }
  - { offsetInCU: 0xD2A4F, offset: 0xD2A4F, size: 0x8, addend: 0x0, symName: __ZL16stbi__idct_blockPhiPs, symObjAddr: 0x183B0, symBinAddr: 0x10001BBBC, symSize: 0x414 }
  - { offsetInCU: 0xD2DA2, offset: 0xD2DA2, size: 0x8, addend: 0x0, symName: __ZL22stbi__YCbCr_to_RGB_rowPhPKhS1_S1_ii, symObjAddr: 0x187C4, symBinAddr: 0x10001BFD0, symSize: 0xD4 }
  - { offsetInCU: 0xD2EA4, offset: 0xD2EA4, size: 0x8, addend: 0x0, symName: __ZL23stbi__resample_row_hv_2PhS_S_ii, symObjAddr: 0x18898, symBinAddr: 0x10001C0A4, symSize: 0xB4 }
  - { offsetInCU: 0xD2FD7, offset: 0xD2FD7, size: 0x8, addend: 0x0, symName: __ZL19stbi__build_huffmanP13stbi__huffmanPi, symObjAddr: 0x19638, symBinAddr: 0x10001CE44, symSize: 0x1F8 }
  - { offsetInCU: 0xD30B0, offset: 0xD30B0, size: 0x8, addend: 0x0, symName: __ZL14resample_row_1PhS_S_ii, symObjAddr: 0x1989C, symBinAddr: 0x10001D0A8, symSize: 0x8 }
  - { offsetInCU: 0xD3110, offset: 0xD3110, size: 0x8, addend: 0x0, symName: __ZL22stbi__resample_row_v_2PhS_S_ii, symObjAddr: 0x198A4, symBinAddr: 0x10001D0B0, symSize: 0x38 }
  - { offsetInCU: 0xD318B, offset: 0xD318B, size: 0x8, addend: 0x0, symName: __ZL22stbi__resample_row_h_2PhS_S_ii, symObjAddr: 0x198DC, symBinAddr: 0x10001D0E8, symSize: 0xC0 }
  - { offsetInCU: 0xD322F, offset: 0xD322F, size: 0x8, addend: 0x0, symName: __ZL26stbi__resample_row_genericPhS_S_ii, symObjAddr: 0x1999C, symBinAddr: 0x10001D1A8, symSize: 0x50 }
  - { offsetInCU: 0xD330F, offset: 0xD330F, size: 0x8, addend: 0x0, symName: __ZL22stbi__jpeg_huff_decodeP10stbi__jpegP13stbi__huffman.cold.1, symObjAddr: 0x29E34, symBinAddr: 0x10003317C, symSize: 0x28 }
  - { offsetInCU: 0xD3327, offset: 0xD3327, size: 0x8, addend: 0x0, symName: __ZL25stbi__pnm_skip_whitespaceP13stbi__contextPc, symObjAddr: 0x1A424, symBinAddr: 0x10001DC30, symSize: 0x134 }
  - { offsetInCU: 0xD344E, offset: 0xD344E, size: 0x8, addend: 0x0, symName: __ZL20stbi__pnm_getintegerP13stbi__contextPc, symObjAddr: 0x1A558, symBinAddr: 0x10001DD64, symSize: 0xEC }
  - { offsetInCU: 0xD368F, offset: 0xD368F, size: 0x8, addend: 0x0, symName: __ZNKSt3__112basic_stringIcNS_11char_traitsIcEENS_9allocatorIcEEE20__throw_length_errorB8ue170006Ev, symObjAddr: 0x1B98C, symBinAddr: 0x10001F198, symSize: 0x14 }
  - { offsetInCU: 0xD36B9, offset: 0xD36B9, size: 0x8, addend: 0x0, symName: __ZNSt3__120__throw_length_errorB8ue170006EPKc, symObjAddr: 0x1B9A0, symBinAddr: 0x10001F1AC, symSize: 0x50 }
  - { offsetInCU: 0xD36C4, offset: 0xD36C4, size: 0x8, addend: 0x0, symName: __ZNSt12length_errorC1B8ue170006EPKc, symObjAddr: 0x1B9F0, symBinAddr: 0x10001F1FC, symSize: 0x24 }
  - { offsetInCU: 0xD391B, offset: 0xD391B, size: 0x8, addend: 0x0, symName: __ZNSt12out_of_rangeC1B8ue170006EPKc, symObjAddr: 0x1BBB8, symBinAddr: 0x10001F3C4, symSize: 0x24 }
  - { offsetInCU: 0xD3A4F, offset: 0xD3A4F, size: 0x8, addend: 0x0, symName: __ZNSt3__13mapINS_12basic_stringIcNS_11char_traitsIcEENS_9allocatorIcEEEES6_NS_4lessIS6_EENS4_INS_4pairIKS6_S6_EEEEEC2B8ue170006ERKSD_, symObjAddr: 0x1C610, symBinAddr: 0x10001FE1C, symSize: 0x54 }
  - { offsetInCU: 0xD3D97, offset: 0xD3D97, size: 0x8, addend: 0x0, symName: __ZNSt3__13mapINS_12basic_stringIcNS_11char_traitsIcEENS_9allocatorIcEEEES6_NS_4lessIS6_EENS4_INS_4pairIKS6_S6_EEEEE6insertB8ue170006INS_20__map_const_iteratorINS_21__tree_const_iteratorINS_12__value_typeIS6_S6_EEPNS_11__tree_nodeISI_PvEElEEEEEEvT_SP_, symObjAddr: 0x1C664, symBinAddr: 0x10001FE70, symSize: 0x84 }
  - { offsetInCU: 0xD4098, offset: 0xD4098, size: 0x8, addend: 0x0, symName: __ZNSt3__16__treeINS_12__value_typeINS_12basic_stringIcNS_11char_traitsIcEENS_9allocatorIcEEEES7_EENS_19__map_value_compareIS7_S8_NS_4lessIS7_EELb1EEENS5_IS8_EEE30__emplace_hint_unique_key_argsIS7_JRKNS_4pairIKS7_S7_EEEEENSG_INS_15__tree_iteratorIS8_PNS_11__tree_nodeIS8_PvEElEEbEENS_21__tree_const_iteratorIS8_SP_lEERKT_DpOT0_, symObjAddr: 0x1C6E8, symBinAddr: 0x10001FEF4, symSize: 0x94 }
  - { offsetInCU: 0xD42F9, offset: 0xD42F9, size: 0x8, addend: 0x0, symName: __ZNSt3__16__treeINS_12__value_typeINS_12basic_stringIcNS_11char_traitsIcEENS_9allocatorIcEEEES7_EENS_19__map_value_compareIS7_S8_NS_4lessIS7_EELb1EEENS5_IS8_EEE12__find_equalIS7_EERPNS_16__tree_node_baseIPvEENS_21__tree_const_iteratorIS8_PNS_11__tree_nodeIS8_SH_EElEERPNS_15__tree_end_nodeISJ_EESK_RKT_, symObjAddr: 0x1C77C, symBinAddr: 0x10001FF88, symSize: 0x184 }
  - { offsetInCU: 0xD471A, offset: 0xD471A, size: 0x8, addend: 0x0, symName: __ZNSt3__16__treeINS_12__value_typeINS_12basic_stringIcNS_11char_traitsIcEENS_9allocatorIcEEEES7_EENS_19__map_value_compareIS7_S8_NS_4lessIS7_EELb1EEENS5_IS8_EEE16__construct_nodeIJRKNS_4pairIKS7_S7_EEEEENS_10unique_ptrINS_11__tree_nodeIS8_PvEENS_22__tree_node_destructorINS5_ISO_EEEEEEDpOT_, symObjAddr: 0x1C900, symBinAddr: 0x10002010C, symSize: 0x68 }
  - { offsetInCU: 0xD49AB, offset: 0xD49AB, size: 0x8, addend: 0x0, symName: __ZNSt3__16__treeINS_12__value_typeINS_12basic_stringIcNS_11char_traitsIcEENS_9allocatorIcEEEES7_EENS_19__map_value_compareIS7_S8_NS_4lessIS7_EELb1EEENS5_IS8_EEE16__insert_node_atEPNS_15__tree_end_nodeIPNS_16__tree_node_baseIPvEEEERSJ_SJ_, symObjAddr: 0x1C968, symBinAddr: 0x100020174, symSize: 0x54 }
  - { offsetInCU: 0xD4A12, offset: 0xD4A12, size: 0x8, addend: 0x0, symName: __ZNSt3__110unique_ptrINS_11__tree_nodeINS_12__value_typeINS_12basic_stringIcNS_11char_traitsIcEENS_9allocatorIcEEEES8_EEPvEENS_22__tree_node_destructorINS6_ISB_EEEEE5resetB8ue170006EPSB_, symObjAddr: 0x1CD0C, symBinAddr: 0x100020518, symSize: 0x44 }
  - { offsetInCU: 0xD4C96, offset: 0xD4C96, size: 0x8, addend: 0x0, symName: __ZNSt3__16__treeINS_12__value_typeINS_12basic_stringIcNS_11char_traitsIcEENS_9allocatorIcEEEES7_EENS_19__map_value_compareIS7_S8_NS_4lessIS7_EELb1EEENS5_IS8_EEE12__find_equalIS7_EERPNS_16__tree_node_baseIPvEERPNS_15__tree_end_nodeISJ_EERKT_, symObjAddr: 0x1C9BC, symBinAddr: 0x1000201C8, symSize: 0x90 }
  - { offsetInCU: 0xD5025, offset: 0xD5025, size: 0x8, addend: 0x0, symName: __ZNSt3__14pairIKNS_12basic_stringIcNS_11char_traitsIcEENS_9allocatorIcEEEES6_EC2B8ue170006ERKS8_, symObjAddr: 0x1CAE0, symBinAddr: 0x1000202EC, symSize: 0x94 }
  - { offsetInCU: 0xD5414, offset: 0xD5414, size: 0x8, addend: 0x0, symName: __ZN7tinyobj10material_tC2EOS0_, symObjAddr: 0x1CE30, symBinAddr: 0x10002063C, symSize: 0x464 }
  - { offsetInCU: 0xD5449, offset: 0xD5449, size: 0x8, addend: 0x0, symName: __ZN7tinyobj10material_tC2EOS0_, symObjAddr: 0x1CE30, symBinAddr: 0x10002063C, symSize: 0x464 }
  - { offsetInCU: 0xD546B, offset: 0xD546B, size: 0x8, addend: 0x0, symName: __ZN7tinyobj10material_tC2EOS0_, symObjAddr: 0x1CE30, symBinAddr: 0x10002063C, symSize: 0x464 }
  - { offsetInCU: 0xD689D, offset: 0xD689D, size: 0x8, addend: 0x0, symName: __ZNSt3__128__exception_guard_exceptionsINS_29_AllocatorDestroyRangeReverseINS_9allocatorINS_12basic_stringIcNS_11char_traitsIcEENS2_IcEEEEEENS_16reverse_iteratorIPS7_EEEEED2B8ue170006Ev, symObjAddr: 0x1D920, symBinAddr: 0x10002112C, symSize: 0x34 }
  - { offsetInCU: 0xD68DC, offset: 0xD68DC, size: 0x8, addend: 0x0, symName: __ZNKSt3__129_AllocatorDestroyRangeReverseINS_9allocatorINS_12basic_stringIcNS_11char_traitsIcEENS1_IcEEEEEENS_16reverse_iteratorIPS6_EEEclB8ue170006Ev, symObjAddr: 0x1D954, symBinAddr: 0x100021160, symSize: 0x44 }
  - { offsetInCU: 0xD6B57, offset: 0xD6B57, size: 0x8, addend: 0x0, symName: __ZNSt3__114__split_bufferINS_12basic_stringIcNS_11char_traitsIcEENS_9allocatorIcEEEERNS4_IS6_EEE17__destruct_at_endB8ue170006EPS6_, symObjAddr: 0x1D9CC, symBinAddr: 0x1000211D8, symSize: 0x54 }
  - { offsetInCU: 0xD6D79, offset: 0xD6D79, size: 0x8, addend: 0x0, symName: __ZNSt3__112basic_stringIcNS_11char_traitsIcEENS_9allocatorIcEEEC2B8ue170006ENS_24__uninitialized_size_tagEmRKS4_, symObjAddr: 0x1DAE8, symBinAddr: 0x1000212F4, symSize: 0x74 }
  - { offsetInCU: 0xD6F11, offset: 0xD6F11, size: 0x8, addend: 0x0, symName: __ZNSt3__16vectorINS_12basic_stringIcNS_11char_traitsIcEENS_9allocatorIcEEEENS4_IS6_EEE16__destroy_vectorclB8ue170006Ev, symObjAddr: 0x1DB5C, symBinAddr: 0x100021368, symSize: 0x40 }
  - { offsetInCU: 0xD6F42, offset: 0xD6F42, size: 0x8, addend: 0x0, symName: __ZNSt3__16vectorINS_12basic_stringIcNS_11char_traitsIcEENS_9allocatorIcEEEENS4_IS6_EEE7__clearB8ue170006Ev, symObjAddr: 0x1DB9C, symBinAddr: 0x1000213A8, symSize: 0x54 }
  - { offsetInCU: 0xD731E, offset: 0xD731E, size: 0x8, addend: 0x0, symName: __ZNSt3__114__split_bufferIN7tinyobj13skin_weight_tERNS_9allocatorIS2_EEED2Ev, symObjAddr: 0x1E088, symBinAddr: 0x100021894, symSize: 0x34 }
  - { offsetInCU: 0xD742B, offset: 0xD742B, size: 0x8, addend: 0x0, symName: __ZNKSt3__16vectorIN7tinyobj13skin_weight_tENS_9allocatorIS2_EEE20__throw_length_errorB8ue170006Ev, symObjAddr: 0x1DF18, symBinAddr: 0x100021724, symSize: 0x14 }
  - { offsetInCU: 0xD7455, offset: 0xD7455, size: 0x8, addend: 0x0, symName: __ZNSt3__119__allocate_at_leastB8ue170006INS_9allocatorIN7tinyobj13skin_weight_tEEEEENS_19__allocation_resultINS_16allocator_traitsIT_E7pointerEEERS7_m, symObjAddr: 0x1DF2C, symBinAddr: 0x100021738, symSize: 0x34 }
  - { offsetInCU: 0xD75C5, offset: 0xD75C5, size: 0x8, addend: 0x0, symName: __ZNSt3__16vectorIN7tinyobj18joint_and_weight_tENS_9allocatorIS2_EEE11__vallocateB8ue170006Em, symObjAddr: 0x1DE64, symBinAddr: 0x100021670, symSize: 0x40 }
  - { offsetInCU: 0xD7641, offset: 0xD7641, size: 0x8, addend: 0x0, symName: __ZNSt3__16vectorIN7tinyobj13skin_weight_tENS_9allocatorIS2_EEE26__swap_out_circular_bufferERNS_14__split_bufferIS2_RS4_EE, symObjAddr: 0x1DEA4, symBinAddr: 0x1000216B0, symSize: 0x74 }
  - { offsetInCU: 0xD77D0, offset: 0xD77D0, size: 0x8, addend: 0x0, symName: __ZNSt3__128__exception_guard_exceptionsINS_29_AllocatorDestroyRangeReverseINS_9allocatorIN7tinyobj13skin_weight_tEEENS_16reverse_iteratorIPS4_EEEEED2B8ue170006Ev, symObjAddr: 0x1E010, symBinAddr: 0x10002181C, symSize: 0x34 }
  - { offsetInCU: 0xD780F, offset: 0xD780F, size: 0x8, addend: 0x0, symName: __ZNKSt3__129_AllocatorDestroyRangeReverseINS_9allocatorIN7tinyobj13skin_weight_tEEENS_16reverse_iteratorIPS3_EEEclB8ue170006Ev, symObjAddr: 0x1E044, symBinAddr: 0x100021850, symSize: 0x44 }
  - { offsetInCU: 0xD7B2B, offset: 0xD7B2B, size: 0x8, addend: 0x0, symName: __ZNSt3__114__split_bufferIN7tinyobj13skin_weight_tERNS_9allocatorIS2_EEE17__destruct_at_endB8ue170006EPS2_, symObjAddr: 0x1E0BC, symBinAddr: 0x1000218C8, symSize: 0x58 }
  - { offsetInCU: 0xD7F51, offset: 0xD7F51, size: 0x8, addend: 0x0, symName: __ZNSt3__114__split_bufferIN7tinyobj8__line_tERNS_9allocatorIS2_EEED2Ev, symObjAddr: 0x1E6BC, symBinAddr: 0x100021EC8, symSize: 0x34 }
  - { offsetInCU: 0xD805E, offset: 0xD805E, size: 0x8, addend: 0x0, symName: __ZNKSt3__16vectorIN7tinyobj8__line_tENS_9allocatorIS2_EEE20__throw_length_errorB8ue170006Ev, symObjAddr: 0x1E544, symBinAddr: 0x100021D50, symSize: 0x14 }
  - { offsetInCU: 0xD8088, offset: 0xD8088, size: 0x8, addend: 0x0, symName: __ZNSt3__119__allocate_at_leastB8ue170006INS_9allocatorIN7tinyobj8__line_tEEEEENS_19__allocation_resultINS_16allocator_traitsIT_E7pointerEEERS7_m, symObjAddr: 0x1E558, symBinAddr: 0x100021D64, symSize: 0x44 }
  - { offsetInCU: 0xD81F8, offset: 0xD81F8, size: 0x8, addend: 0x0, symName: __ZNSt3__16vectorIN7tinyobj14vertex_index_tENS_9allocatorIS2_EEE11__vallocateB8ue170006Em, symObjAddr: 0x1E480, symBinAddr: 0x100021C8C, symSize: 0x50 }
  - { offsetInCU: 0xD8274, offset: 0xD8274, size: 0x8, addend: 0x0, symName: __ZNSt3__16vectorIN7tinyobj8__line_tENS_9allocatorIS2_EEE26__swap_out_circular_bufferERNS_14__split_bufferIS2_RS4_EE, symObjAddr: 0x1E4D0, symBinAddr: 0x100021CDC, symSize: 0x74 }
  - { offsetInCU: 0xD8403, offset: 0xD8403, size: 0x8, addend: 0x0, symName: __ZNSt3__128__exception_guard_exceptionsINS_29_AllocatorDestroyRangeReverseINS_9allocatorIN7tinyobj8__line_tEEENS_16reverse_iteratorIPS4_EEEEED2B8ue170006Ev, symObjAddr: 0x1E644, symBinAddr: 0x100021E50, symSize: 0x34 }
  - { offsetInCU: 0xD8442, offset: 0xD8442, size: 0x8, addend: 0x0, symName: __ZNKSt3__129_AllocatorDestroyRangeReverseINS_9allocatorIN7tinyobj8__line_tEEENS_16reverse_iteratorIPS3_EEEclB8ue170006Ev, symObjAddr: 0x1E678, symBinAddr: 0x100021E84, symSize: 0x44 }
  - { offsetInCU: 0xD872A, offset: 0xD872A, size: 0x8, addend: 0x0, symName: __ZNSt3__114__split_bufferIN7tinyobj8__line_tERNS_9allocatorIS2_EEE17__destruct_at_endB8ue170006EPS2_, symObjAddr: 0x1E6F0, symBinAddr: 0x100021EFC, symSize: 0x58 }
  - { offsetInCU: 0xD8AFB, offset: 0xD8AFB, size: 0x8, addend: 0x0, symName: __ZNSt3__114__split_bufferIN7tinyobj10__points_tERNS_9allocatorIS2_EEED2Ev, symObjAddr: 0x1EA48, symBinAddr: 0x100022254, symSize: 0x34 }
  - { offsetInCU: 0xD8C08, offset: 0xD8C08, size: 0x8, addend: 0x0, symName: __ZNKSt3__16vectorIN7tinyobj10__points_tENS_9allocatorIS2_EEE20__throw_length_errorB8ue170006Ev, symObjAddr: 0x1E8D0, symBinAddr: 0x1000220DC, symSize: 0x14 }
  - { offsetInCU: 0xD8C32, offset: 0xD8C32, size: 0x8, addend: 0x0, symName: __ZNSt3__119__allocate_at_leastB8ue170006INS_9allocatorIN7tinyobj10__points_tEEEEENS_19__allocation_resultINS_16allocator_traitsIT_E7pointerEEERS7_m, symObjAddr: 0x1E8E4, symBinAddr: 0x1000220F0, symSize: 0x44 }
  - { offsetInCU: 0xD8D55, offset: 0xD8D55, size: 0x8, addend: 0x0, symName: __ZNSt3__128__exception_guard_exceptionsINS_29_AllocatorDestroyRangeReverseINS_9allocatorIN7tinyobj10__points_tEEENS_16reverse_iteratorIPS4_EEEEED2B8ue170006Ev, symObjAddr: 0x1E9D0, symBinAddr: 0x1000221DC, symSize: 0x34 }
  - { offsetInCU: 0xD8D94, offset: 0xD8D94, size: 0x8, addend: 0x0, symName: __ZNKSt3__129_AllocatorDestroyRangeReverseINS_9allocatorIN7tinyobj10__points_tEEENS_16reverse_iteratorIPS3_EEEclB8ue170006Ev, symObjAddr: 0x1EA04, symBinAddr: 0x100022210, symSize: 0x44 }
  - { offsetInCU: 0xD907C, offset: 0xD907C, size: 0x8, addend: 0x0, symName: __ZNSt3__114__split_bufferIN7tinyobj10__points_tERNS_9allocatorIS2_EEE17__destruct_at_endB8ue170006EPS2_, symObjAddr: 0x1EA7C, symBinAddr: 0x100022288, symSize: 0x58 }
  - { offsetInCU: 0xD944D, offset: 0xD944D, size: 0x8, addend: 0x0, symName: __ZNSt3__114__split_bufferIN7tinyobj6face_tERNS_9allocatorIS2_EEED2Ev, symObjAddr: 0x1EDB4, symBinAddr: 0x1000225C0, symSize: 0x34 }
  - { offsetInCU: 0xD955A, offset: 0xD955A, size: 0x8, addend: 0x0, symName: __ZNKSt3__16vectorIN7tinyobj6face_tENS_9allocatorIS2_EEE20__throw_length_errorB8ue170006Ev, symObjAddr: 0x1EC48, symBinAddr: 0x100022454, symSize: 0x14 }
  - { offsetInCU: 0xD9584, offset: 0xD9584, size: 0x8, addend: 0x0, symName: __ZNSt3__119__allocate_at_leastB8ue170006INS_9allocatorIN7tinyobj6face_tEEEEENS_19__allocation_resultINS_16allocator_traitsIT_E7pointerEEERS7_m, symObjAddr: 0x1EC5C, symBinAddr: 0x100022468, symSize: 0x34 }
  - { offsetInCU: 0xD96A7, offset: 0xD96A7, size: 0x8, addend: 0x0, symName: __ZNSt3__128__exception_guard_exceptionsINS_29_AllocatorDestroyRangeReverseINS_9allocatorIN7tinyobj6face_tEEENS_16reverse_iteratorIPS4_EEEEED2B8ue170006Ev, symObjAddr: 0x1ED3C, symBinAddr: 0x100022548, symSize: 0x34 }
  - { offsetInCU: 0xD96E6, offset: 0xD96E6, size: 0x8, addend: 0x0, symName: __ZNKSt3__129_AllocatorDestroyRangeReverseINS_9allocatorIN7tinyobj6face_tEEENS_16reverse_iteratorIPS3_EEEclB8ue170006Ev, symObjAddr: 0x1ED70, symBinAddr: 0x10002257C, symSize: 0x44 }
  - { offsetInCU: 0xD99DA, offset: 0xD99DA, size: 0x8, addend: 0x0, symName: __ZNSt3__114__split_bufferIN7tinyobj6face_tERNS_9allocatorIS2_EEE17__destruct_at_endB8ue170006EPS2_, symObjAddr: 0x1EDE8, symBinAddr: 0x1000225F4, symSize: 0x58 }
  - { offsetInCU: 0xD9DE1, offset: 0xD9DE1, size: 0x8, addend: 0x0, symName: __ZNSt3__16vectorIN7tinyobj5tag_tENS_9allocatorIS2_EEE11__vallocateB8ue170006Em, symObjAddr: 0x1F0B0, symBinAddr: 0x1000228BC, symSize: 0x50 }
  - { offsetInCU: 0xD9E5D, offset: 0xD9E5D, size: 0x8, addend: 0x0, symName: __ZNSt3__135__uninitialized_allocator_copy_implB8ue170006INS_9allocatorIN7tinyobj5tag_tEEEPS3_S5_S5_EET2_RT_T0_T1_S6_, symObjAddr: 0x1F100, symBinAddr: 0x10002290C, symSize: 0x80 }
  - { offsetInCU: 0xD9E79, offset: 0xD9E79, size: 0x8, addend: 0x0, symName: __ZNKSt3__111__copy_loopINS_17_ClassicAlgPolicyEEclB8ue170006IPN7tinyobj5tag_tES6_S6_EENS_4pairIT_T1_EES8_T0_S9_, symObjAddr: 0x1F66C, symBinAddr: 0x100022E78, symSize: 0xAC }
  - { offsetInCU: 0xDA35A, offset: 0xDA35A, size: 0x8, addend: 0x0, symName: __ZNSt3__16vectorIiNS_9allocatorIiEEE16__init_with_sizeB8ue170006IPiS5_EEvT_T0_m, symObjAddr: 0x1F288, symBinAddr: 0x100022A94, symSize: 0x78 }
  - { offsetInCU: 0xDA77B, offset: 0xDA77B, size: 0x8, addend: 0x0, symName: __ZNSt3__16vectorIfNS_9allocatorIfEEE16__init_with_sizeB8ue170006IPfS5_EEvT_T0_m, symObjAddr: 0x1F340, symBinAddr: 0x100022B4C, symSize: 0x78 }
  - { offsetInCU: 0xDAB9C, offset: 0xDAB9C, size: 0x8, addend: 0x0, symName: __ZNSt3__16vectorINS_12basic_stringIcNS_11char_traitsIcEENS_9allocatorIcEEEENS4_IS6_EEE16__init_with_sizeB8ue170006IPS6_SA_EEvT_T0_m, symObjAddr: 0x1F3F8, symBinAddr: 0x100022C04, symSize: 0x84 }
  - { offsetInCU: 0xDAF7B, offset: 0xDAF7B, size: 0x8, addend: 0x0, symName: __ZNSt3__16vectorIiNS_9allocatorIiEEE11__vallocateB8ue170006Em, symObjAddr: 0x1F300, symBinAddr: 0x100022B0C, symSize: 0x40 }
  - { offsetInCU: 0xDAFF7, offset: 0xDAFF7, size: 0x8, addend: 0x0, symName: __ZNSt3__16vectorIfNS_9allocatorIfEEE16__init_with_sizeB8ue170006IPfS5_EEvT_T0_m, symObjAddr: 0x1F340, symBinAddr: 0x100022B4C, symSize: 0x78 }
  - { offsetInCU: 0xDB183, offset: 0xDB183, size: 0x8, addend: 0x0, symName: __ZNSt3__16vectorIfNS_9allocatorIfEEE11__vallocateB8ue170006Em, symObjAddr: 0x1F3B8, symBinAddr: 0x100022BC4, symSize: 0x40 }
  - { offsetInCU: 0xDB1FF, offset: 0xDB1FF, size: 0x8, addend: 0x0, symName: __ZNSt3__16vectorINS_12basic_stringIcNS_11char_traitsIcEENS_9allocatorIcEEEENS4_IS6_EEE16__init_with_sizeB8ue170006IPS6_SA_EEvT_T0_m, symObjAddr: 0x1F3F8, symBinAddr: 0x100022C04, symSize: 0x84 }
  - { offsetInCU: 0xDB386, offset: 0xDB386, size: 0x8, addend: 0x0, symName: __ZNSt3__16vectorINS_12basic_stringIcNS_11char_traitsIcEENS_9allocatorIcEEEENS4_IS6_EEE11__vallocateB8ue170006Em, symObjAddr: 0x1F47C, symBinAddr: 0x100022C88, symSize: 0x50 }
  - { offsetInCU: 0xDB402, offset: 0xDB402, size: 0x8, addend: 0x0, symName: __ZNSt3__135__uninitialized_allocator_copy_implB8ue170006INS_9allocatorINS_12basic_stringIcNS_11char_traitsIcEENS1_IcEEEEEEPS6_S8_S8_EET2_RT_T0_T1_S9_, symObjAddr: 0x1F4CC, symBinAddr: 0x100022CD8, symSize: 0xBC }
  - { offsetInCU: 0xDB4D2, offset: 0xDB4D2, size: 0x8, addend: 0x0, symName: __ZNSt3__128__exception_guard_exceptionsINS_29_AllocatorDestroyRangeReverseINS_9allocatorINS_12basic_stringIcNS_11char_traitsIcEENS2_IcEEEEEEPS7_EEED2B8ue170006Ev, symObjAddr: 0x1F588, symBinAddr: 0x100022D94, symSize: 0x34 }
  - { offsetInCU: 0xDB511, offset: 0xDB511, size: 0x8, addend: 0x0, symName: __ZNKSt3__129_AllocatorDestroyRangeReverseINS_9allocatorINS_12basic_stringIcNS_11char_traitsIcEENS1_IcEEEEEEPS6_EclB8ue170006Ev, symObjAddr: 0x1F5BC, symBinAddr: 0x100022DC8, symSize: 0x4C }
  - { offsetInCU: 0xDB8B5, offset: 0xDB8B5, size: 0x8, addend: 0x0, symName: __ZNSt3__16vectorIiNS_9allocatorIiEEE18__assign_with_sizeB8ue170006IPiS5_EEvT_T0_l, symObjAddr: 0x1F718, symBinAddr: 0x100022F24, symSize: 0x108 }
  - { offsetInCU: 0xDBF4D, offset: 0xDBF4D, size: 0x8, addend: 0x0, symName: __ZNSt3__16vectorIfNS_9allocatorIfEEE18__assign_with_sizeB8ue170006IPfS5_EEvT_T0_l, symObjAddr: 0x1F820, symBinAddr: 0x10002302C, symSize: 0x108 }
  - { offsetInCU: 0xDBF70, offset: 0xDBF70, size: 0x8, addend: 0x0, symName: __ZNSt3__16vectorIfNS_9allocatorIfEEE18__assign_with_sizeB8ue170006IPfS5_EEvT_T0_l, symObjAddr: 0x1F820, symBinAddr: 0x10002302C, symSize: 0x108 }
  - { offsetInCU: 0xDC608, offset: 0xDC608, size: 0x8, addend: 0x0, symName: __ZNSt3__16vectorINS_12basic_stringIcNS_11char_traitsIcEENS_9allocatorIcEEEENS4_IS6_EEE18__assign_with_sizeB8ue170006IPS6_SA_EEvT_T0_l, symObjAddr: 0x1F928, symBinAddr: 0x100023134, symSize: 0x178 }
  - { offsetInCU: 0xDC62B, offset: 0xDC62B, size: 0x8, addend: 0x0, symName: __ZNSt3__16vectorINS_12basic_stringIcNS_11char_traitsIcEENS_9allocatorIcEEEENS4_IS6_EEE18__assign_with_sizeB8ue170006IPS6_SA_EEvT_T0_l, symObjAddr: 0x1F928, symBinAddr: 0x100023134, symSize: 0x178 }
  - { offsetInCU: 0xDCD4C, offset: 0xDCD4C, size: 0x8, addend: 0x0, symName: __ZNSt3__16vectorINS_12basic_stringIcNS_11char_traitsIcEENS_9allocatorIcEEEENS4_IS6_EEE13__vdeallocateEv, symObjAddr: 0x1FAA0, symBinAddr: 0x1000232AC, symSize: 0x38 }
  - { offsetInCU: 0xDCEDF, offset: 0xDCEDF, size: 0x8, addend: 0x0, symName: __ZNSt3__16vectorIN7tinyobj6face_tENS_9allocatorIS2_EEE7__clearB8ue170006Ev, symObjAddr: 0x1FB8C, symBinAddr: 0x100023398, symSize: 0x54 }
  - { offsetInCU: 0xDD229, offset: 0xDD229, size: 0x8, addend: 0x0, symName: __ZN7tinyobj6mesh_tC2ERKS0_, symObjAddr: 0x1FDC0, symBinAddr: 0x1000235CC, symSize: 0x148 }
  - { offsetInCU: 0xDD9CB, offset: 0xDD9CB, size: 0x8, addend: 0x0, symName: __ZNSt3__16vectorIN7tinyobj7index_tENS_9allocatorIS2_EEE16__init_with_sizeB8ue170006IPS2_S7_EEvT_T0_m, symObjAddr: 0x1FF08, symBinAddr: 0x100023714, symSize: 0x78 }
  - { offsetInCU: 0xDDDEC, offset: 0xDDDEC, size: 0x8, addend: 0x0, symName: __ZN7tinyobj7lines_tD1Ev, symObjAddr: 0x1FD08, symBinAddr: 0x100023514, symSize: 0x40 }
  - { offsetInCU: 0xDE0BD, offset: 0xDE0BD, size: 0x8, addend: 0x0, symName: __ZN7tinyobj6mesh_tD1Ev, symObjAddr: 0x1FD48, symBinAddr: 0x100023554, symSize: 0x78 }
  - { offsetInCU: 0xDE81B, offset: 0xDE81B, size: 0x8, addend: 0x0, symName: __ZNSt3__16vectorIjNS_9allocatorIjEEE16__init_with_sizeB8ue170006IPjS5_EEvT_T0_m, symObjAddr: 0x20028, symBinAddr: 0x100023834, symSize: 0x78 }
  - { offsetInCU: 0xDEC3C, offset: 0xDEC3C, size: 0x8, addend: 0x0, symName: __ZNSt3__16vectorIN7tinyobj5tag_tENS_9allocatorIS2_EEE16__init_with_sizeB8ue170006IPS2_S7_EEvT_T0_m, symObjAddr: 0x200E0, symBinAddr: 0x1000238EC, symSize: 0x84 }
  - { offsetInCU: 0xDF01B, offset: 0xDF01B, size: 0x8, addend: 0x0, symName: __ZNSt3__16vectorIN7tinyobj7index_tENS_9allocatorIS2_EEE11__vallocateB8ue170006Em, symObjAddr: 0x1FF80, symBinAddr: 0x10002378C, symSize: 0x50 }
  - { offsetInCU: 0xDF097, offset: 0xDF097, size: 0x8, addend: 0x0, symName: __ZNKSt3__16vectorIN7tinyobj7index_tENS_9allocatorIS2_EEE20__throw_length_errorB8ue170006Ev, symObjAddr: 0x1FFD0, symBinAddr: 0x1000237DC, symSize: 0x14 }
  - { offsetInCU: 0xDF244, offset: 0xDF244, size: 0x8, addend: 0x0, symName: __ZNSt3__16vectorIjNS_9allocatorIjEEE11__vallocateB8ue170006Em, symObjAddr: 0x200A0, symBinAddr: 0x1000238AC, symSize: 0x40 }
  - { offsetInCU: 0xDF2C0, offset: 0xDF2C0, size: 0x8, addend: 0x0, symName: __ZNSt3__16vectorIN7tinyobj5tag_tENS_9allocatorIS2_EEE16__init_with_sizeB8ue170006IPS2_S7_EEvT_T0_m, symObjAddr: 0x200E0, symBinAddr: 0x1000238EC, symSize: 0x84 }
  - { offsetInCU: 0xDF7F9, offset: 0xDF7F9, size: 0x8, addend: 0x0, symName: __ZNSt3__16vectorIN7tinyobj8__line_tENS_9allocatorIS2_EEE7__clearB8ue170006Ev, symObjAddr: 0x205D0, symBinAddr: 0x100023DDC, symSize: 0x54 }
  - { offsetInCU: 0xDFA40, offset: 0xDFA40, size: 0x8, addend: 0x0, symName: __ZNSt3__16vectorIN7tinyobj10__points_tENS_9allocatorIS2_EEE7__clearB8ue170006Ev, symObjAddr: 0x20624, symBinAddr: 0x100023E30, symSize: 0x54 }
  - { offsetInCU: 0xE00C2, offset: 0xE00C2, size: 0x8, addend: 0x0, symName: __ZNSt3__16vectorIN7tinyobj13skin_weight_tENS_9allocatorIS2_EEE7__clearB8ue170006Ev, symObjAddr: 0x20C4C, symBinAddr: 0x100024458, symSize: 0x54 }
  - { offsetInCU: 0xE05E6, offset: 0xE05E6, size: 0x8, addend: 0x0, symName: __ZNKSt3__16vectorIPKcNS_9allocatorIS2_EEE20__throw_length_errorB8ue170006Ev, symObjAddr: 0x20DB4, symBinAddr: 0x1000245C0, symSize: 0x14 }
  - { offsetInCU: 0xE0610, offset: 0xE0610, size: 0x8, addend: 0x0, symName: __ZNSt3__119__allocate_at_leastB8ue170006INS_9allocatorIPKcEEEENS_19__allocation_resultINS_16allocator_traitsIT_E7pointerEEERS7_m, symObjAddr: 0x20DC8, symBinAddr: 0x1000245D4, symSize: 0x34 }
  - { offsetInCU: 0xE06F5, offset: 0xE06F5, size: 0x8, addend: 0x0, symName: __ZNSt3__16vectorI4cellNS_9allocatorIS1_EEE22__base_destruct_at_endB8ue170006EPS1_, symObjAddr: 0x20EC0, symBinAddr: 0x1000246CC, symSize: 0x70 }
  - { offsetInCU: 0xE0A9E, offset: 0xE0A9E, size: 0x8, addend: 0x0, symName: __ZNSt3__16vectorIPKcNS_9allocatorIS2_EEE11__vallocateB8ue170006Em, symObjAddr: 0x20FCC, symBinAddr: 0x1000247D8, symSize: 0x40 }
  - { offsetInCU: 0xE0B07, offset: 0xE0B07, size: 0x8, addend: 0x0, symName: __ZN24HelloTriangleApplication10initWindowEv, symObjAddr: 0x2100C, symBinAddr: 0x100024818, symSize: 0x128 }
  - { offsetInCU: 0xE0C02, offset: 0xE0C02, size: 0x8, addend: 0x0, symName: __ZN24HelloTriangleApplication14createInstanceEv, symObjAddr: 0x216AC, symBinAddr: 0x100024EB8, symSize: 0x11C }
  - { offsetInCU: 0xE0F76, offset: 0xE0F76, size: 0x8, addend: 0x0, symName: __ZN24HelloTriangleApplication13createSurfaceEv, symObjAddr: 0x217C8, symBinAddr: 0x100024FD4, symSize: 0x74 }
  - { offsetInCU: 0xE0FB0, offset: 0xE0FB0, size: 0x8, addend: 0x0, symName: __ZN24HelloTriangleApplication18pickPhysicalDeviceEv, symObjAddr: 0x2183C, symBinAddr: 0x100025048, symSize: 0x148 }
  - { offsetInCU: 0xE13B0, offset: 0xE13B0, size: 0x8, addend: 0x0, symName: __ZN24HelloTriangleApplication19createLogicalDeviceEv, symObjAddr: 0x21984, symBinAddr: 0x100025190, symSize: 0x3A4 }
  - { offsetInCU: 0xE1F95, offset: 0xE1F95, size: 0x8, addend: 0x0, symName: __ZN24HelloTriangleApplication15createSwapChainEv, symObjAddr: 0x21D28, symBinAddr: 0x100025534, symSize: 0x268 }
  - { offsetInCU: 0xE252E, offset: 0xE252E, size: 0x8, addend: 0x0, symName: __ZN24HelloTriangleApplication16createImageViewsEv, symObjAddr: 0x21F90, symBinAddr: 0x10002579C, symSize: 0x70 }
  - { offsetInCU: 0xE25F0, offset: 0xE25F0, size: 0x8, addend: 0x0, symName: __ZN24HelloTriangleApplication16createRenderPassEv, symObjAddr: 0x22000, symBinAddr: 0x10002580C, symSize: 0x158 }
  - { offsetInCU: 0xE26CB, offset: 0xE26CB, size: 0x8, addend: 0x0, symName: __ZN24HelloTriangleApplication25createDescriptorSetLayoutEv, symObjAddr: 0x22158, symBinAddr: 0x100025964, symSize: 0xBC }
  - { offsetInCU: 0xE274B, offset: 0xE274B, size: 0x8, addend: 0x0, symName: __ZN24HelloTriangleApplication22createGraphicsPipelineEv, symObjAddr: 0x22214, symBinAddr: 0x100025A20, symSize: 0x4AC }
  - { offsetInCU: 0xE3542, offset: 0xE3542, size: 0x8, addend: 0x0, symName: __ZN24HelloTriangleApplication20createDepthResourcesEv, symObjAddr: 0x226C0, symBinAddr: 0x100025ECC, symSize: 0x6C }
  - { offsetInCU: 0xE35DF, offset: 0xE35DF, size: 0x8, addend: 0x0, symName: __ZN24HelloTriangleApplication18createFramebuffersEv, symObjAddr: 0x2272C, symBinAddr: 0x100025F38, symSize: 0x124 }
  - { offsetInCU: 0xE36B6, offset: 0xE36B6, size: 0x8, addend: 0x0, symName: __ZN24HelloTriangleApplication17createCommandPoolEv, symObjAddr: 0x22850, symBinAddr: 0x10002605C, symSize: 0xAC }
  - { offsetInCU: 0xE3764, offset: 0xE3764, size: 0x8, addend: 0x0, symName: __ZN24HelloTriangleApplication18createTextureImageEv, symObjAddr: 0x228FC, symBinAddr: 0x100026108, symSize: 0x3AC }
  - { offsetInCU: 0xE4313, offset: 0xE4313, size: 0x8, addend: 0x0, symName: __ZN24HelloTriangleApplication22createTextureImageViewEv, symObjAddr: 0x22CA8, symBinAddr: 0x1000264B4, symSize: 0x114 }
  - { offsetInCU: 0xE477E, offset: 0xE477E, size: 0x8, addend: 0x0, symName: __ZN24HelloTriangleApplication20createTextureSamplerEv, symObjAddr: 0x22DBC, symBinAddr: 0x1000265C8, symSize: 0x20C }
  - { offsetInCU: 0xE478F, offset: 0xE478F, size: 0x8, addend: 0x0, symName: __ZN24HelloTriangleApplication20createTextureSamplerEv, symObjAddr: 0x22DBC, symBinAddr: 0x1000265C8, symSize: 0x20C }
  - { offsetInCU: 0xE4C57, offset: 0xE4C57, size: 0x8, addend: 0x0, symName: __ZN24HelloTriangleApplication10loadModelsEv, symObjAddr: 0x22FC8, symBinAddr: 0x1000267D4, symSize: 0x80C }
  - { offsetInCU: 0xE80E3, offset: 0xE80E3, size: 0x8, addend: 0x0, symName: __ZN24HelloTriangleApplication18createVertexBufferEv, symObjAddr: 0x237D4, symBinAddr: 0x100026FE0, symSize: 0xE0 }
  - { offsetInCU: 0xE8266, offset: 0xE8266, size: 0x8, addend: 0x0, symName: __ZN24HelloTriangleApplication17createIndexBufferEv, symObjAddr: 0x238B4, symBinAddr: 0x1000270C0, symSize: 0xE0 }
  - { offsetInCU: 0xE83E6, offset: 0xE83E6, size: 0x8, addend: 0x0, symName: __ZN24HelloTriangleApplication20createUniformBuffersEv, symObjAddr: 0x23994, symBinAddr: 0x1000271A0, symSize: 0x1D4 }
  - { offsetInCU: 0xE8923, offset: 0xE8923, size: 0x8, addend: 0x0, symName: __ZN24HelloTriangleApplication20createDescriptorPoolEv, symObjAddr: 0x23B68, symBinAddr: 0x100027374, symSize: 0xB0 }
  - { offsetInCU: 0xE8934, offset: 0xE8934, size: 0x8, addend: 0x0, symName: __ZN24HelloTriangleApplication20createDescriptorPoolEv, symObjAddr: 0x23B68, symBinAddr: 0x100027374, symSize: 0xB0 }
  - { offsetInCU: 0xE8992, offset: 0xE8992, size: 0x8, addend: 0x0, symName: __ZN24HelloTriangleApplication20createDescriptorSetsEv, symObjAddr: 0x23C18, symBinAddr: 0x100027424, symSize: 0x218 }
  - { offsetInCU: 0xE8E88, offset: 0xE8E88, size: 0x8, addend: 0x0, symName: __ZN24HelloTriangleApplication20createCommandBuffersEv, symObjAddr: 0x23E30, symBinAddr: 0x10002763C, symSize: 0xAC }
  - { offsetInCU: 0xE8EFB, offset: 0xE8EFB, size: 0x8, addend: 0x0, symName: __ZN24HelloTriangleApplication17createSyncObjectsEv, symObjAddr: 0x23EDC, symBinAddr: 0x1000276E8, symSize: 0x124 }
  - { offsetInCU: 0xE9040, offset: 0xE9040, size: 0x8, addend: 0x0, symName: __ZN24HelloTriangleApplication19setObjectPropertiesEv, symObjAddr: 0x24000, symBinAddr: 0x10002780C, symSize: 0x244 }
  - { offsetInCU: 0xE9860, offset: 0xE9860, size: 0x8, addend: 0x0, symName: __ZN24HelloTriangleApplication21getRequiredExtensionsEv, symObjAddr: 0x24244, symBinAddr: 0x100027A50, symSize: 0x150 }
  - { offsetInCU: 0xE9995, offset: 0xE9995, size: 0x8, addend: 0x0, symName: __ZN24HelloTriangleApplication9drawFrameEv, symObjAddr: 0x282A8, symBinAddr: 0x10002BAB4, symSize: 0x2B8 }
  - { offsetInCU: 0xE9D81, offset: 0xE9D81, size: 0x8, addend: 0x0, symName: __ZN24HelloTriangleApplication16cleanupSwapChainEv, symObjAddr: 0x28ED4, symBinAddr: 0x10002C6E0, symSize: 0xC0 }
  - { offsetInCU: 0xEA020, offset: 0xEA020, size: 0x8, addend: 0x0, symName: __ZN24HelloTriangleApplication25framebufferResizeCallbackEP10GLFWwindowii, symObjAddr: 0x21690, symBinAddr: 0x100024E9C, symSize: 0x1C }
  - { offsetInCU: 0xEA09E, offset: 0xEA09E, size: 0x8, addend: 0x0, symName: __ZN24HelloTriangleApplication21getRequiredExtensionsEv, symObjAddr: 0x24244, symBinAddr: 0x100027A50, symSize: 0x150 }
  - { offsetInCU: 0xEA9C7, offset: 0xEA9C7, size: 0x8, addend: 0x0, symName: __ZNSt3__16vectorIP18VkPhysicalDevice_TNS_9allocatorIS2_EEEC2Em, symObjAddr: 0x2450C, symBinAddr: 0x100027D18, symSize: 0x74 }
  - { offsetInCU: 0xEAC58, offset: 0xEAC58, size: 0x8, addend: 0x0, symName: __ZN24HelloTriangleApplication16isDeviceSuitableEP18VkPhysicalDevice_T, symObjAddr: 0x2440C, symBinAddr: 0x100027C18, symSize: 0x100 }
  - { offsetInCU: 0xEB6AD, offset: 0xEB6AD, size: 0x8, addend: 0x0, symName: __ZN24HelloTriangleApplication17findQueueFamiliesEP18VkPhysicalDevice_T, symObjAddr: 0x24608, symBinAddr: 0x100027E14, symSize: 0x1BC }
  - { offsetInCU: 0xEBB5E, offset: 0xEBB5E, size: 0x8, addend: 0x0, symName: __ZNSt3__13setIjNS_4lessIjEENS_9allocatorIjEEEC2B8ue170006ESt16initializer_listIjERKS2_, symObjAddr: 0x25960, symBinAddr: 0x10002916C, symSize: 0x7C }
  - { offsetInCU: 0xEC143, offset: 0xEC143, size: 0x8, addend: 0x0, symName: __ZNSt3__16__treeIjNS_4lessIjEENS_9allocatorIjEEE7destroyEPNS_11__tree_nodeIjPvEE, symObjAddr: 0x25C5C, symBinAddr: 0x100029468, symSize: 0x40 }
  - { offsetInCU: 0xEC27A, offset: 0xEC27A, size: 0x8, addend: 0x0, symName: __ZNKSt3__16vectorI23VkDeviceQueueCreateInfoNS_9allocatorIS1_EEE20__throw_length_errorB8ue170006Ev, symObjAddr: 0x25C9C, symBinAddr: 0x1000294A8, symSize: 0x14 }
  - { offsetInCU: 0xEC2A4, offset: 0xEC2A4, size: 0x8, addend: 0x0, symName: __ZNSt3__119__allocate_at_leastB8ue170006INS_9allocatorI23VkDeviceQueueCreateInfoEEEENS_19__allocation_resultINS_16allocator_traitsIT_E7pointerEEERS6_m, symObjAddr: 0x25CB0, symBinAddr: 0x1000294BC, symSize: 0x44 }
  - { offsetInCU: 0xEC5FF, offset: 0xEC5FF, size: 0x8, addend: 0x0, symName: __ZN24HelloTriangleApplication21querySwapChainSupportEP18VkPhysicalDevice_T, symObjAddr: 0x248E0, symBinAddr: 0x1000280EC, symSize: 0xE8 }
  - { offsetInCU: 0xEC7E4, offset: 0xEC7E4, size: 0x8, addend: 0x0, symName: __ZN24HelloTriangleApplication16chooseSwapExtentERK24VkSurfaceCapabilitiesKHR, symObjAddr: 0x25CF4, symBinAddr: 0x100029500, symSize: 0x7C }
  - { offsetInCU: 0xECA55, offset: 0xECA55, size: 0x8, addend: 0x0, symName: __ZNSt3__16vectorIP9VkImage_TNS_9allocatorIS2_EEE6resizeEm, symObjAddr: 0x25D70, symBinAddr: 0x10002957C, symSize: 0x2C }
  - { offsetInCU: 0xECA9F, offset: 0xECA9F, size: 0x8, addend: 0x0, symName: __ZNSt3__16vectorIP9VkImage_TNS_9allocatorIS2_EEE6resizeEm, symObjAddr: 0x25D70, symBinAddr: 0x10002957C, symSize: 0x2C }
  - { offsetInCU: 0xECB16, offset: 0xECB16, size: 0x8, addend: 0x0, symName: __ZN23SwapChainSupportDetailsD1Ev, symObjAddr: 0x249C8, symBinAddr: 0x1000281D4, symSize: 0x40 }
  - { offsetInCU: 0xECDF2, offset: 0xECDF2, size: 0x8, addend: 0x0, symName: __ZNSt3__16vectorIP13VkImageView_TNS_9allocatorIS2_EEE6resizeEm, symObjAddr: 0x25EE4, symBinAddr: 0x1000296F0, symSize: 0x2C }
  - { offsetInCU: 0xECE3C, offset: 0xECE3C, size: 0x8, addend: 0x0, symName: __ZNSt3__16vectorIP13VkImageView_TNS_9allocatorIS2_EEE6resizeEm, symObjAddr: 0x25EE4, symBinAddr: 0x1000296F0, symSize: 0x2C }
  - { offsetInCU: 0xECEB3, offset: 0xECEB3, size: 0x8, addend: 0x0, symName: __ZN24HelloTriangleApplication15createImageViewEP9VkImage_T8VkFormatj, symObjAddr: 0x25F10, symBinAddr: 0x10002971C, symSize: 0xB0 }
  - { offsetInCU: 0xECF49, offset: 0xECF49, size: 0x8, addend: 0x0, symName: __ZN24HelloTriangleApplication15findDepthFormatEv, symObjAddr: 0x26108, symBinAddr: 0x100029914, symSize: 0x94 }
  - { offsetInCU: 0xEDC19, offset: 0xEDC19, size: 0x8, addend: 0x0, symName: __ZN24HelloTriangleApplication8readFileERKNSt3__112basic_stringIcNS0_11char_traitsIcEENS0_9allocatorIcEEEE, symObjAddr: 0x2626C, symBinAddr: 0x100029A78, symSize: 0x1A4 }
  - { offsetInCU: 0xEDF92, offset: 0xEDF92, size: 0x8, addend: 0x0, symName: __ZN24HelloTriangleApplication18createShaderModuleERKNSt3__16vectorIcNS0_9allocatorIcEEEE, symObjAddr: 0x26410, symBinAddr: 0x100029C1C, symSize: 0x9C }
  - { offsetInCU: 0xEEBAF, offset: 0xEEBAF, size: 0x8, addend: 0x0, symName: __ZN24HelloTriangleApplication11createImageEjj8VkFormat13VkImageTilingjjRP9VkImage_TRP16VkDeviceMemory_T, symObjAddr: 0x26688, symBinAddr: 0x100029E94, symSize: 0x158 }
  - { offsetInCU: 0xEED4B, offset: 0xEED4B, size: 0x8, addend: 0x0, symName: __ZNSt3__16vectorIP15VkFramebuffer_TNS_9allocatorIS2_EEE6resizeEm, symObjAddr: 0x26898, symBinAddr: 0x10002A0A4, symSize: 0x2C }
  - { offsetInCU: 0xEED95, offset: 0xEED95, size: 0x8, addend: 0x0, symName: __ZNSt3__16vectorIP15VkFramebuffer_TNS_9allocatorIS2_EEE6resizeEm, symObjAddr: 0x26898, symBinAddr: 0x10002A0A4, symSize: 0x2C }
  - { offsetInCU: 0xEF649, offset: 0xEF649, size: 0x8, addend: 0x0, symName: __ZN24HelloTriangleApplication12createBufferEyjjRP10VkBuffer_TRP16VkDeviceMemory_T, symObjAddr: 0x26A0C, symBinAddr: 0x10002A218, symSize: 0x13C }
  - { offsetInCU: 0xEF7BA, offset: 0xEF7BA, size: 0x8, addend: 0x0, symName: __ZN24HelloTriangleApplication21transitionImageLayoutEP9VkImage_T8VkFormat13VkImageLayoutS3_, symObjAddr: 0x26B48, symBinAddr: 0x10002A354, symSize: 0x13C }
  - { offsetInCU: 0xEF8CD, offset: 0xEF8CD, size: 0x8, addend: 0x0, symName: __ZN24HelloTriangleApplication17copyBufferToImageEP10VkBuffer_TP9VkImage_Tjj, symObjAddr: 0x26C84, symBinAddr: 0x10002A490, symSize: 0x90 }
  - { offsetInCU: 0xEF9AD, offset: 0xEF9AD, size: 0x8, addend: 0x0, symName: __ZNKSt3__16vectorIP9VkImage_TNS_9allocatorIS2_EEE20__throw_length_errorB8ue170006Ev, symObjAddr: 0x25E9C, symBinAddr: 0x1000296A8, symSize: 0x14 }
  - { offsetInCU: 0xEF9D7, offset: 0xEF9D7, size: 0x8, addend: 0x0, symName: __ZNSt3__119__allocate_at_leastB8ue170006INS_9allocatorIP9VkImage_TEEEENS_19__allocation_resultINS_16allocator_traitsIT_E7pointerEEERS7_m, symObjAddr: 0x25EB0, symBinAddr: 0x1000296BC, symSize: 0x34 }
  - { offsetInCU: 0xEF9E2, offset: 0xEF9E2, size: 0x8, addend: 0x0, symName: __ZNKSt3__16vectorIP16VkDeviceMemory_TNS_9allocatorIS2_EEE20__throw_length_errorB8ue170006Ev, symObjAddr: 0x26D14, symBinAddr: 0x10002A520, symSize: 0x14 }
  - { offsetInCU: 0xEFA0C, offset: 0xEFA0C, size: 0x8, addend: 0x0, symName: __ZNSt3__119__allocate_at_leastB8ue170006INS_9allocatorIP16VkDeviceMemory_TEEEENS_19__allocation_resultINS_16allocator_traitsIT_E7pointerEEERS7_m, symObjAddr: 0x26D28, symBinAddr: 0x10002A534, symSize: 0x34 }
  - { offsetInCU: 0xEFD53, offset: 0xEFD53, size: 0x8, addend: 0x0, symName: __ZNKSt3__16vectorIP13VkImageView_TNS_9allocatorIS2_EEE20__throw_length_errorB8ue170006Ev, symObjAddr: 0x260C0, symBinAddr: 0x1000298CC, symSize: 0x14 }
  - { offsetInCU: 0xEFD7D, offset: 0xEFD7D, size: 0x8, addend: 0x0, symName: __ZNSt3__119__allocate_at_leastB8ue170006INS_9allocatorIP13VkImageView_TEEEENS_19__allocation_resultINS_16allocator_traitsIT_E7pointerEEERS7_m, symObjAddr: 0x260D4, symBinAddr: 0x1000298E0, symSize: 0x34 }
  - { offsetInCU: 0xF0982, offset: 0xF0982, size: 0x8, addend: 0x0, symName: __ZNKSt3__16vectorIP11VkSampler_TNS_9allocatorIS2_EEE20__throw_length_errorB8ue170006Ev, symObjAddr: 0x26E78, symBinAddr: 0x10002A684, symSize: 0x14 }
  - { offsetInCU: 0xF09AC, offset: 0xF09AC, size: 0x8, addend: 0x0, symName: __ZNSt3__119__allocate_at_leastB8ue170006INS_9allocatorIP11VkSampler_TEEEENS_19__allocation_resultINS_16allocator_traitsIT_E7pointerEEERS7_m, symObjAddr: 0x26E8C, symBinAddr: 0x10002A698, symSize: 0x34 }
  - { offsetInCU: 0xF1242, offset: 0xF1242, size: 0x8, addend: 0x0, symName: __ZNKSt3__112__hash_tableINS_17__hash_value_typeI6VertexjEENS_22__unordered_map_hasherIS2_S3_NS_4hashIS2_EENS_8equal_toIS2_EELb1EEENS_21__unordered_map_equalIS2_S3_S8_S6_Lb1EEENS_9allocatorIS3_EEE4findIS2_EENS_21__hash_const_iteratorIPNS_11__hash_nodeIS3_PvEEEERKT_, symObjAddr: 0x26EC0, symBinAddr: 0x10002A6CC, symSize: 0xF8 }
  - { offsetInCU: 0xF146B, offset: 0xF146B, size: 0x8, addend: 0x0, symName: __ZNSt3__112__hash_tableINS_17__hash_value_typeI6VertexjEENS_22__unordered_map_hasherIS2_S3_NS_4hashIS2_EENS_8equal_toIS2_EELb1EEENS_21__unordered_map_equalIS2_S3_S8_S6_Lb1EEENS_9allocatorIS3_EEE25__emplace_unique_key_argsIS2_JRKNS_21piecewise_construct_tENS_5tupleIJRKS2_EEENSJ_IJEEEEEENS_4pairINS_15__hash_iteratorIPNS_11__hash_nodeIS3_PvEEEEbEERKT_DpOT0_, symObjAddr: 0x27124, symBinAddr: 0x10002A930, symSize: 0x244 }
  - { offsetInCU: 0xF1AF8, offset: 0xF1AF8, size: 0x8, addend: 0x0, symName: __ZNSt3__112__hash_tableINS_17__hash_value_typeI6VertexjEENS_22__unordered_map_hasherIS2_S3_NS_4hashIS2_EENS_8equal_toIS2_EELb1EEENS_21__unordered_map_equalIS2_S3_S8_S6_Lb1EEENS_9allocatorIS3_EEED2Ev, symObjAddr: 0x275E4, symBinAddr: 0x10002ADF0, symSize: 0x48 }
  - { offsetInCU: 0xF1D81, offset: 0xF1D81, size: 0x8, addend: 0x0, symName: __ZNSt3__16vectorIN7tinyobj7shape_tENS_9allocatorIS2_EEE16__destroy_vectorclB8ue170006Ev, symObjAddr: 0x2762C, symBinAddr: 0x10002AE38, symSize: 0x70 }
  - { offsetInCU: 0xF1F20, offset: 0xF1F20, size: 0x8, addend: 0x0, symName: __ZNKSt3__16vectorI6VertexNS_9allocatorIS1_EEE20__throw_length_errorB8ue170006Ev, symObjAddr: 0x2759C, symBinAddr: 0x10002ADA8, symSize: 0x14 }
  - { offsetInCU: 0xF1F4A, offset: 0xF1F4A, size: 0x8, addend: 0x0, symName: __ZNSt3__119__allocate_at_leastB8ue170006INS_9allocatorI6VertexEEEENS_19__allocation_resultINS_16allocator_traitsIT_E7pointerEEERS6_m, symObjAddr: 0x275B0, symBinAddr: 0x10002ADBC, symSize: 0x34 }
  - { offsetInCU: 0xF1F6B, offset: 0xF1F6B, size: 0x8, addend: 0x0, symName: __ZN24HelloTriangleApplication10copyBufferEP10VkBuffer_TS1_y, symObjAddr: 0x2769C, symBinAddr: 0x10002AEA8, symSize: 0x70 }
  - { offsetInCU: 0xF23DF, offset: 0xF23DF, size: 0x8, addend: 0x0, symName: __ZNSt3__16vectorIP10VkBuffer_TNS_9allocatorIS2_EEE6resizeEm, symObjAddr: 0x2770C, symBinAddr: 0x10002AF18, symSize: 0x2C }
  - { offsetInCU: 0xF2429, offset: 0xF2429, size: 0x8, addend: 0x0, symName: __ZNSt3__16vectorIP10VkBuffer_TNS_9allocatorIS2_EEE6resizeEm, symObjAddr: 0x2770C, symBinAddr: 0x10002AF18, symSize: 0x2C }
  - { offsetInCU: 0xF24A0, offset: 0xF24A0, size: 0x8, addend: 0x0, symName: __ZNSt3__16vectorIP16VkDeviceMemory_TNS_9allocatorIS2_EEE6resizeEm, symObjAddr: 0x27738, symBinAddr: 0x10002AF44, symSize: 0x2C }
  - { offsetInCU: 0xF24EA, offset: 0xF24EA, size: 0x8, addend: 0x0, symName: __ZNSt3__16vectorIP16VkDeviceMemory_TNS_9allocatorIS2_EEE6resizeEm, symObjAddr: 0x27738, symBinAddr: 0x10002AF44, symSize: 0x2C }
  - { offsetInCU: 0xF2561, offset: 0xF2561, size: 0x8, addend: 0x0, symName: __ZNSt3__16vectorIPvNS_9allocatorIS1_EEE6resizeEm, symObjAddr: 0x27764, symBinAddr: 0x10002AF70, symSize: 0x2C }
  - { offsetInCU: 0xF25AB, offset: 0xF25AB, size: 0x8, addend: 0x0, symName: __ZNSt3__16vectorIPvNS_9allocatorIS1_EEE6resizeEm, symObjAddr: 0x27764, symBinAddr: 0x10002AF70, symSize: 0x2C }
  - { offsetInCU: 0xF2622, offset: 0xF2622, size: 0x8, addend: 0x0, symName: __ZNKSt3__16vectorI19UniformBufferObjectNS_9allocatorIS1_EEE20__throw_length_errorB8ue170006Ev, symObjAddr: 0x27B20, symBinAddr: 0x10002B32C, symSize: 0x14 }
  - { offsetInCU: 0xF264C, offset: 0xF264C, size: 0x8, addend: 0x0, symName: __ZNSt3__119__allocate_at_leastB8ue170006INS_9allocatorI19UniformBufferObjectEEEENS_19__allocation_resultINS_16allocator_traitsIT_E7pointerEEERS6_m, symObjAddr: 0x27B34, symBinAddr: 0x10002B340, symSize: 0x44 }
  - { offsetInCU: 0xF28B4, offset: 0xF28B4, size: 0x8, addend: 0x0, symName: __ZNSt3__16vectorIP23VkDescriptorSetLayout_TNS_9allocatorIS2_EEEC2EmRKS2_, symObjAddr: 0x27BA4, symBinAddr: 0x10002B3B0, symSize: 0x80 }
  - { offsetInCU: 0xF2B81, offset: 0xF2B81, size: 0x8, addend: 0x0, symName: __ZNSt3__16vectorIP17VkDescriptorSet_TNS_9allocatorIS2_EEE6resizeEm, symObjAddr: 0x27B78, symBinAddr: 0x10002B384, symSize: 0x2C }
  - { offsetInCU: 0xF2BCB, offset: 0xF2BCB, size: 0x8, addend: 0x0, symName: __ZNSt3__16vectorIP17VkDescriptorSet_TNS_9allocatorIS2_EEE6resizeEm, symObjAddr: 0x27B78, symBinAddr: 0x10002B384, symSize: 0x2C }
  - { offsetInCU: 0xF2EFF, offset: 0xF2EFF, size: 0x8, addend: 0x0, symName: __ZNSt3__16vectorIP17VkCommandBuffer_TNS_9allocatorIS2_EEE6resizeEm, symObjAddr: 0x27DF4, symBinAddr: 0x10002B600, symSize: 0x2C }
  - { offsetInCU: 0xF2F49, offset: 0xF2F49, size: 0x8, addend: 0x0, symName: __ZNSt3__16vectorIP17VkCommandBuffer_TNS_9allocatorIS2_EEE6resizeEm, symObjAddr: 0x27DF4, symBinAddr: 0x10002B600, symSize: 0x2C }
  - { offsetInCU: 0xF3052, offset: 0xF3052, size: 0x8, addend: 0x0, symName: __ZNSt3__16vectorIP13VkSemaphore_TNS_9allocatorIS2_EEE6resizeEm, symObjAddr: 0x27F68, symBinAddr: 0x10002B774, symSize: 0x2C }
  - { offsetInCU: 0xF309C, offset: 0xF309C, size: 0x8, addend: 0x0, symName: __ZNSt3__16vectorIP13VkSemaphore_TNS_9allocatorIS2_EEE6resizeEm, symObjAddr: 0x27F68, symBinAddr: 0x10002B774, symSize: 0x2C }
  - { offsetInCU: 0xF3113, offset: 0xF3113, size: 0x8, addend: 0x0, symName: __ZNSt3__16vectorIP9VkFence_TNS_9allocatorIS2_EEE6resizeEm, symObjAddr: 0x27F94, symBinAddr: 0x10002B7A0, symSize: 0x2C }
  - { offsetInCU: 0xF315D, offset: 0xF315D, size: 0x8, addend: 0x0, symName: __ZNSt3__16vectorIP9VkFence_TNS_9allocatorIS2_EEE6resizeEm, symObjAddr: 0x27F94, symBinAddr: 0x10002B7A0, symSize: 0x2C }
  - { offsetInCU: 0xF3720, offset: 0xF3720, size: 0x8, addend: 0x0, symName: __ZNKSt3__16vectorIN3glm3vecILi3EfLNS1_9qualifierE0EEENS_9allocatorIS4_EEE20__throw_length_errorB8ue170006Ev, symObjAddr: 0x28250, symBinAddr: 0x10002BA5C, symSize: 0x14 }
  - { offsetInCU: 0xF374A, offset: 0xF374A, size: 0x8, addend: 0x0, symName: __ZNSt3__119__allocate_at_leastB8ue170006INS_9allocatorIN3glm3vecILi3EfLNS2_9qualifierE0EEEEEEENS_19__allocation_resultINS_16allocator_traitsIT_E7pointerEEERS9_m, symObjAddr: 0x28264, symBinAddr: 0x10002BA70, symSize: 0x44 }
  - { offsetInCU: 0xF38FE, offset: 0xF38FE, size: 0x8, addend: 0x0, symName: __ZNSt3__16vectorIPKcNS_9allocatorIS2_EEE16__init_with_sizeB8ue170006IPS2_S7_EEvT_T0_m, symObjAddr: 0x24394, symBinAddr: 0x100027BA0, symSize: 0x78 }
  - { offsetInCU: 0xF3EB6, offset: 0xF3EB6, size: 0x8, addend: 0x0, symName: __ZN24HelloTriangleApplication27checkDeviceExtensionSupportEP18VkPhysicalDevice_T, symObjAddr: 0x247C4, symBinAddr: 0x100027FD0, symSize: 0x11C }
  - { offsetInCU: 0xF48F2, offset: 0xF48F2, size: 0x8, addend: 0x0, symName: __ZNSt3__16vectorIP18VkPhysicalDevice_TNS_9allocatorIS2_EEE11__vallocateB8ue170006Em, symObjAddr: 0x24580, symBinAddr: 0x100027D8C, symSize: 0x40 }
  - { offsetInCU: 0xF496E, offset: 0xF496E, size: 0x8, addend: 0x0, symName: __ZNKSt3__16vectorIP18VkPhysicalDevice_TNS_9allocatorIS2_EEE20__throw_length_errorB8ue170006Ev, symObjAddr: 0x245C0, symBinAddr: 0x100027DCC, symSize: 0x14 }
  - { offsetInCU: 0xF4995, offset: 0xF4995, size: 0x8, addend: 0x0, symName: __ZNKSt3__16vectorIP18VkPhysicalDevice_TNS_9allocatorIS2_EEE20__throw_length_errorB8ue170006Ev, symObjAddr: 0x245C0, symBinAddr: 0x100027DCC, symSize: 0x14 }
  - { offsetInCU: 0xF49BF, offset: 0xF49BF, size: 0x8, addend: 0x0, symName: __ZNSt3__119__allocate_at_leastB8ue170006INS_9allocatorIP18VkPhysicalDevice_TEEEENS_19__allocation_resultINS_16allocator_traitsIT_E7pointerEEERS7_m, symObjAddr: 0x245D4, symBinAddr: 0x100027DE0, symSize: 0x34 }
  - { offsetInCU: 0xF4BAC, offset: 0xF4BAC, size: 0x8, addend: 0x0, symName: __ZNSt3__16vectorI23VkQueueFamilyPropertiesNS_9allocatorIS1_EEEC2Em, symObjAddr: 0x24A08, symBinAddr: 0x100028214, symSize: 0x98 }
  - { offsetInCU: 0xF509D, offset: 0xF509D, size: 0x8, addend: 0x0, symName: __ZNSt3__16vectorI21VkExtensionPropertiesNS_9allocatorIS1_EEEC2Em, symObjAddr: 0x24B48, symBinAddr: 0x100028354, symSize: 0xA0 }
  - { offsetInCU: 0xF5330, offset: 0xF5330, size: 0x8, addend: 0x0, symName: __ZNSt3__13setINS_12basic_stringIcNS_11char_traitsIcEENS_9allocatorIcEEEENS_4lessIS6_EENS4_IS6_EEEC2B8ue170006INS_11__wrap_iterIPKPKcEEEET_SI_RKS8_, symObjAddr: 0x24C98, symBinAddr: 0x1000284A4, symSize: 0x7C }
  - { offsetInCU: 0xF559F, offset: 0xF559F, size: 0x8, addend: 0x0, symName: __ZNSt3__16__treeINS_12basic_stringIcNS_11char_traitsIcEENS_9allocatorIcEEEENS_4lessIS6_EENS4_IS6_EEE14__erase_uniqueIS6_EEmRKT_, symObjAddr: 0x25148, symBinAddr: 0x100028954, symSize: 0x44 }
  - { offsetInCU: 0xF573F, offset: 0xF573F, size: 0x8, addend: 0x0, symName: __ZNSt3__16vectorI18VkSurfaceFormatKHRNS_9allocatorIS1_EEE6resizeEm, symObjAddr: 0x2563C, symBinAddr: 0x100028E48, symSize: 0x2C }
  - { offsetInCU: 0xF5789, offset: 0xF5789, size: 0x8, addend: 0x0, symName: __ZNSt3__16vectorI18VkSurfaceFormatKHRNS_9allocatorIS1_EEE6resizeEm, symObjAddr: 0x2563C, symBinAddr: 0x100028E48, symSize: 0x2C }
  - { offsetInCU: 0xF5828, offset: 0xF5828, size: 0x8, addend: 0x0, symName: __ZNSt3__16vectorI16VkPresentModeKHRNS_9allocatorIS1_EEE6resizeEm, symObjAddr: 0x25668, symBinAddr: 0x100028E74, symSize: 0x2C }
  - { offsetInCU: 0xF5872, offset: 0xF5872, size: 0x8, addend: 0x0, symName: __ZNSt3__16vectorI16VkPresentModeKHRNS_9allocatorIS1_EEE6resizeEm, symObjAddr: 0x25668, symBinAddr: 0x100028E74, symSize: 0x2C }
  - { offsetInCU: 0xF5A58, offset: 0xF5A58, size: 0x8, addend: 0x0, symName: __ZNSt3__16vectorI23VkQueueFamilyPropertiesNS_9allocatorIS1_EEE11__vallocateB8ue170006Em, symObjAddr: 0x24AA0, symBinAddr: 0x1000282AC, symSize: 0x50 }
  - { offsetInCU: 0xF5AD4, offset: 0xF5AD4, size: 0x8, addend: 0x0, symName: __ZNKSt3__16vectorI23VkQueueFamilyPropertiesNS_9allocatorIS1_EEE20__throw_length_errorB8ue170006Ev, symObjAddr: 0x24AF0, symBinAddr: 0x1000282FC, symSize: 0x14 }
  - { offsetInCU: 0xF5AFB, offset: 0xF5AFB, size: 0x8, addend: 0x0, symName: __ZNKSt3__16vectorI23VkQueueFamilyPropertiesNS_9allocatorIS1_EEE20__throw_length_errorB8ue170006Ev, symObjAddr: 0x24AF0, symBinAddr: 0x1000282FC, symSize: 0x14 }
  - { offsetInCU: 0xF5B25, offset: 0xF5B25, size: 0x8, addend: 0x0, symName: __ZNSt3__119__allocate_at_leastB8ue170006INS_9allocatorI23VkQueueFamilyPropertiesEEEENS_19__allocation_resultINS_16allocator_traitsIT_E7pointerEEERS6_m, symObjAddr: 0x24B04, symBinAddr: 0x100028310, symSize: 0x44 }
  - { offsetInCU: 0xF5CC0, offset: 0xF5CC0, size: 0x8, addend: 0x0, symName: __ZNSt3__16vectorI21VkExtensionPropertiesNS_9allocatorIS1_EEE11__vallocateB8ue170006Em, symObjAddr: 0x24BE8, symBinAddr: 0x1000283F4, symSize: 0x54 }
  - { offsetInCU: 0xF5D3C, offset: 0xF5D3C, size: 0x8, addend: 0x0, symName: __ZNKSt3__16vectorI21VkExtensionPropertiesNS_9allocatorIS1_EEE20__throw_length_errorB8ue170006Ev, symObjAddr: 0x24C3C, symBinAddr: 0x100028448, symSize: 0x14 }
  - { offsetInCU: 0xF5D63, offset: 0xF5D63, size: 0x8, addend: 0x0, symName: __ZNKSt3__16vectorI21VkExtensionPropertiesNS_9allocatorIS1_EEE20__throw_length_errorB8ue170006Ev, symObjAddr: 0x24C3C, symBinAddr: 0x100028448, symSize: 0x14 }
  - { offsetInCU: 0xF5D8D, offset: 0xF5D8D, size: 0x8, addend: 0x0, symName: __ZNSt3__119__allocate_at_leastB8ue170006INS_9allocatorI21VkExtensionPropertiesEEEENS_19__allocation_resultINS_16allocator_traitsIT_E7pointerEEERS6_m, symObjAddr: 0x24C50, symBinAddr: 0x10002845C, symSize: 0x48 }
  - { offsetInCU: 0xF5ECB, offset: 0xF5ECB, size: 0x8, addend: 0x0, symName: __ZNSt3__16__treeINS_12basic_stringIcNS_11char_traitsIcEENS_9allocatorIcEEEENS_4lessIS6_EENS4_IS6_EEE26__emplace_hint_unique_implIJRKPKcEEENS_15__tree_iteratorIS6_PNS_11__tree_nodeIS6_PvEElEENS_21__tree_const_iteratorIS6_SK_lEEDpOT_, symObjAddr: 0x24D14, symBinAddr: 0x100028520, symSize: 0xB0 }
  - { offsetInCU: 0xF6213, offset: 0xF6213, size: 0x8, addend: 0x0, symName: __ZNSt3__16__treeINS_12basic_stringIcNS_11char_traitsIcEENS_9allocatorIcEEEENS_4lessIS6_EENS4_IS6_EEE16__construct_nodeIJRKPKcEEENS_10unique_ptrINS_11__tree_nodeIS6_PvEENS_22__tree_node_destructorINS4_ISJ_EEEEEEDpOT_, symObjAddr: 0x24DC4, symBinAddr: 0x1000285D0, symSize: 0x80 }
  - { offsetInCU: 0xF64CA, offset: 0xF64CA, size: 0x8, addend: 0x0, symName: __ZNSt3__16__treeINS_12basic_stringIcNS_11char_traitsIcEENS_9allocatorIcEEEENS_4lessIS6_EENS4_IS6_EEE12__find_equalIS6_EERPNS_16__tree_node_baseIPvEENS_21__tree_const_iteratorIS6_PNS_11__tree_nodeIS6_SD_EElEERPNS_15__tree_end_nodeISF_EESG_RKT_, symObjAddr: 0x24E44, symBinAddr: 0x100028650, symSize: 0x184 }
  - { offsetInCU: 0xF6837, offset: 0xF6837, size: 0x8, addend: 0x0, symName: __ZNSt3__122__tree_node_destructorINS_9allocatorINS_11__tree_nodeINS_12basic_stringIcNS_11char_traitsIcEENS1_IcEEEEPvEEEEEclB8ue170006EPS9_, symObjAddr: 0x250AC, symBinAddr: 0x1000288B8, symSize: 0x4C }
  - { offsetInCU: 0xF6AB9, offset: 0xF6AB9, size: 0x8, addend: 0x0, symName: __ZNSt3__16__treeINS_12basic_stringIcNS_11char_traitsIcEENS_9allocatorIcEEEENS_4lessIS6_EENS4_IS6_EEE16__insert_node_atEPNS_15__tree_end_nodeIPNS_16__tree_node_baseIPvEEEERSF_SF_, symObjAddr: 0x24FC8, symBinAddr: 0x1000287D4, symSize: 0x54 }
  - { offsetInCU: 0xF6DAA, offset: 0xF6DAA, size: 0x8, addend: 0x0, symName: __ZNSt3__16__treeINS_12basic_stringIcNS_11char_traitsIcEENS_9allocatorIcEEEENS_4lessIS6_EENS4_IS6_EEE12__find_equalIS6_EERPNS_16__tree_node_baseIPvEERPNS_15__tree_end_nodeISF_EERKT_, symObjAddr: 0x2501C, symBinAddr: 0x100028828, symSize: 0x90 }
  - { offsetInCU: 0xF6F49, offset: 0xF6F49, size: 0x8, addend: 0x0, symName: __ZNSt3__16__treeINS_12basic_stringIcNS_11char_traitsIcEENS_9allocatorIcEEEENS_4lessIS6_EENS4_IS6_EEE4findIS6_EENS_15__tree_iteratorIS6_PNS_11__tree_nodeIS6_PvEElEERKT_, symObjAddr: 0x2518C, symBinAddr: 0x100028998, symSize: 0x7C }
  - { offsetInCU: 0xF7073, offset: 0xF7073, size: 0x8, addend: 0x0, symName: __ZNSt3__16__treeINS_12basic_stringIcNS_11char_traitsIcEENS_9allocatorIcEEEENS_4lessIS6_EENS4_IS6_EEE5eraseENS_21__tree_const_iteratorIS6_PNS_11__tree_nodeIS6_PvEElEE, symObjAddr: 0x25208, symBinAddr: 0x100028A14, symSize: 0x40 }
  - { offsetInCU: 0xF735D, offset: 0xF735D, size: 0x8, addend: 0x0, symName: __ZNSt3__16__treeINS_12basic_stringIcNS_11char_traitsIcEENS_9allocatorIcEEEENS_4lessIS6_EENS4_IS6_EEE21__remove_node_pointerEPNS_11__tree_nodeIS6_PvEE, symObjAddr: 0x25248, symBinAddr: 0x100028A54, symSize: 0x70 }
  - { offsetInCU: 0xF7483, offset: 0xF7483, size: 0x8, addend: 0x0, symName: __ZNSt3__16vectorI18VkSurfaceFormatKHRNS_9allocatorIS1_EEE8__appendEm, symObjAddr: 0x25694, symBinAddr: 0x100028EA0, symSize: 0x100 }
  - { offsetInCU: 0xF78A8, offset: 0xF78A8, size: 0x8, addend: 0x0, symName: __ZNKSt3__16vectorI18VkSurfaceFormatKHRNS_9allocatorIS1_EEE20__throw_length_errorB8ue170006Ev, symObjAddr: 0x25794, symBinAddr: 0x100028FA0, symSize: 0x14 }
  - { offsetInCU: 0xF78FE, offset: 0xF78FE, size: 0x8, addend: 0x0, symName: __ZNSt3__16vectorI16VkPresentModeKHRNS_9allocatorIS1_EEE8__appendEm, symObjAddr: 0x257DC, symBinAddr: 0x100028FE8, symSize: 0x108 }
  - { offsetInCU: 0xF7CFB, offset: 0xF7CFB, size: 0x8, addend: 0x0, symName: __ZNKSt3__16vectorI16VkPresentModeKHRNS_9allocatorIS1_EEE20__throw_length_errorB8ue170006Ev, symObjAddr: 0x258E4, symBinAddr: 0x1000290F0, symSize: 0x14 }
  - { offsetInCU: 0xF7FCD, offset: 0xF7FCD, size: 0x8, addend: 0x0, symName: __ZNKSt3__16vectorI18VkSurfaceFormatKHRNS_9allocatorIS1_EEE20__throw_length_errorB8ue170006Ev, symObjAddr: 0x25794, symBinAddr: 0x100028FA0, symSize: 0x14 }
  - { offsetInCU: 0xF7FF7, offset: 0xF7FF7, size: 0x8, addend: 0x0, symName: __ZNSt3__119__allocate_at_leastB8ue170006INS_9allocatorI18VkSurfaceFormatKHREEEENS_19__allocation_resultINS_16allocator_traitsIT_E7pointerEEERS6_m, symObjAddr: 0x257A8, symBinAddr: 0x100028FB4, symSize: 0x34 }
  - { offsetInCU: 0xF82E4, offset: 0xF82E4, size: 0x8, addend: 0x0, symName: __ZNKSt3__16vectorI16VkPresentModeKHRNS_9allocatorIS1_EEE20__throw_length_errorB8ue170006Ev, symObjAddr: 0x258E4, symBinAddr: 0x1000290F0, symSize: 0x14 }
  - { offsetInCU: 0xF830E, offset: 0xF830E, size: 0x8, addend: 0x0, symName: __ZNSt3__119__allocate_at_leastB8ue170006INS_9allocatorI16VkPresentModeKHREEEENS_19__allocation_resultINS_16allocator_traitsIT_E7pointerEEERS6_m, symObjAddr: 0x258F8, symBinAddr: 0x100029104, symSize: 0x34 }
  - { offsetInCU: 0xF84D2, offset: 0xF84D2, size: 0x8, addend: 0x0, symName: __ZNSt3__16__treeIjNS_4lessIjEENS_9allocatorIjEEE30__emplace_hint_unique_key_argsIjJRKjEEENS_4pairINS_15__tree_iteratorIjPNS_11__tree_nodeIjPvEElEEbEENS_21__tree_const_iteratorIjSE_lEERKT_DpOT0_, symObjAddr: 0x259DC, symBinAddr: 0x1000291E8, symSize: 0x84 }
  - { offsetInCU: 0xF87DC, offset: 0xF87DC, size: 0x8, addend: 0x0, symName: __ZNSt3__16__treeIjNS_4lessIjEENS_9allocatorIjEEE12__find_equalIjEERPNS_16__tree_node_baseIPvEENS_21__tree_const_iteratorIjPNS_11__tree_nodeIjS8_EElEERPNS_15__tree_end_nodeISA_EESB_RKT_, symObjAddr: 0x25A60, symBinAddr: 0x10002926C, symSize: 0x1A8 }
  - { offsetInCU: 0xF8844, offset: 0xF8844, size: 0x8, addend: 0x0, symName: __ZNSt3__16__treeIjNS_4lessIjEENS_9allocatorIjEEE12__find_equalIjEERPNS_16__tree_node_baseIPvEENS_21__tree_const_iteratorIjPNS_11__tree_nodeIjS8_EElEERPNS_15__tree_end_nodeISA_EESB_RKT_, symObjAddr: 0x25A60, symBinAddr: 0x10002926C, symSize: 0x1A8 }
  - { offsetInCU: 0xF8860, offset: 0xF8860, size: 0x8, addend: 0x0, symName: __ZNSt3__16__treeIjNS_4lessIjEENS_9allocatorIjEEE12__find_equalIjEERPNS_16__tree_node_baseIPvEENS_21__tree_const_iteratorIjPNS_11__tree_nodeIjS8_EElEERPNS_15__tree_end_nodeISA_EESB_RKT_, symObjAddr: 0x25A60, symBinAddr: 0x10002926C, symSize: 0x1A8 }
  - { offsetInCU: 0xF8AFB, offset: 0xF8AFB, size: 0x8, addend: 0x0, symName: __ZNSt3__16__treeIjNS_4lessIjEENS_9allocatorIjEEE16__insert_node_atEPNS_15__tree_end_nodeIPNS_16__tree_node_baseIPvEEEERSA_SA_, symObjAddr: 0x25C08, symBinAddr: 0x100029414, symSize: 0x54 }
  - { offsetInCU: 0xF8D3D, offset: 0xF8D3D, size: 0x8, addend: 0x0, symName: __ZNSt3__16vectorIP9VkImage_TNS_9allocatorIS2_EEE8__appendEm, symObjAddr: 0x25D9C, symBinAddr: 0x1000295A8, symSize: 0x100 }
  - { offsetInCU: 0xF9162, offset: 0xF9162, size: 0x8, addend: 0x0, symName: __ZNKSt3__16vectorIP9VkImage_TNS_9allocatorIS2_EEE20__throw_length_errorB8ue170006Ev, symObjAddr: 0x25E9C, symBinAddr: 0x1000296A8, symSize: 0x14 }
  - { offsetInCU: 0xF92BF, offset: 0xF92BF, size: 0x8, addend: 0x0, symName: __ZNSt3__16vectorIP13VkImageView_TNS_9allocatorIS2_EEE8__appendEm, symObjAddr: 0x25FC0, symBinAddr: 0x1000297CC, symSize: 0x100 }
  - { offsetInCU: 0xF96E4, offset: 0xF96E4, size: 0x8, addend: 0x0, symName: __ZNKSt3__16vectorIP13VkImageView_TNS_9allocatorIS2_EEE20__throw_length_errorB8ue170006Ev, symObjAddr: 0x260C0, symBinAddr: 0x1000298CC, symSize: 0x14 }
  - { offsetInCU: 0xF9C05, offset: 0xF9C05, size: 0x8, addend: 0x0, symName: __ZN24HelloTriangleApplication19findSupportedFormatERKNSt3__16vectorI8VkFormatNS0_9allocatorIS2_EEEE13VkImageTilingj, symObjAddr: 0x2619C, symBinAddr: 0x1000299A8, symSize: 0xD0 }
  - { offsetInCU: 0xF9EB4, offset: 0xF9EB4, size: 0x8, addend: 0x0, symName: __ZNSt3__114basic_ifstreamIcNS_11char_traitsIcEEEC1ERKNS_12basic_stringIcS2_NS_9allocatorIcEEEEj, symObjAddr: 0x264AC, symBinAddr: 0x100029CB8, symSize: 0x118 }
  - { offsetInCU: 0xFA036, offset: 0xFA036, size: 0x8, addend: 0x0, symName: __ZNSt3__16vectorIcNS_9allocatorIcEEEC2Em, symObjAddr: 0x265C4, symBinAddr: 0x100029DD0, symSize: 0x70 }
  - { offsetInCU: 0xFA515, offset: 0xFA515, size: 0x8, addend: 0x0, symName: __ZNSt3__16vectorIcNS_9allocatorIcEEE11__vallocateB8ue170006Em, symObjAddr: 0x26634, symBinAddr: 0x100029E40, symSize: 0x40 }
  - { offsetInCU: 0xFA5EA, offset: 0xFA5EA, size: 0x8, addend: 0x0, symName: __ZNKSt3__16vectorIcNS_9allocatorIcEEE20__throw_length_errorB8ue170006Ev, symObjAddr: 0x26674, symBinAddr: 0x100029E80, symSize: 0x14 }
  - { offsetInCU: 0xFA5FB, offset: 0xFA5FB, size: 0x8, addend: 0x0, symName: __ZNKSt3__16vectorIcNS_9allocatorIcEEE20__throw_length_errorB8ue170006Ev, symObjAddr: 0x26674, symBinAddr: 0x100029E80, symSize: 0x14 }
  - { offsetInCU: 0xFA625, offset: 0xFA625, size: 0x8, addend: 0x0, symName: __ZN24HelloTriangleApplication11createImageEjj8VkFormat13VkImageTilingjjRP9VkImage_TRP16VkDeviceMemory_T, symObjAddr: 0x26688, symBinAddr: 0x100029E94, symSize: 0x158 }
  - { offsetInCU: 0xFA7AB, offset: 0xFA7AB, size: 0x8, addend: 0x0, symName: __ZN24HelloTriangleApplication14findMemoryTypeEjj, symObjAddr: 0x267E0, symBinAddr: 0x100029FEC, symSize: 0xB8 }
  - { offsetInCU: 0xFAA43, offset: 0xFAA43, size: 0x8, addend: 0x0, symName: __ZNSt3__16vectorIP15VkFramebuffer_TNS_9allocatorIS2_EEE8__appendEm, symObjAddr: 0x268C4, symBinAddr: 0x10002A0D0, symSize: 0x100 }
  - { offsetInCU: 0xFAE68, offset: 0xFAE68, size: 0x8, addend: 0x0, symName: __ZNKSt3__16vectorIP15VkFramebuffer_TNS_9allocatorIS2_EEE20__throw_length_errorB8ue170006Ev, symObjAddr: 0x269C4, symBinAddr: 0x10002A1D0, symSize: 0x14 }
  - { offsetInCU: 0xFB198, offset: 0xFB198, size: 0x8, addend: 0x0, symName: __ZNKSt3__16vectorIP15VkFramebuffer_TNS_9allocatorIS2_EEE20__throw_length_errorB8ue170006Ev, symObjAddr: 0x269C4, symBinAddr: 0x10002A1D0, symSize: 0x14 }
  - { offsetInCU: 0xFB1C2, offset: 0xFB1C2, size: 0x8, addend: 0x0, symName: __ZNSt3__119__allocate_at_leastB8ue170006INS_9allocatorIP15VkFramebuffer_TEEEENS_19__allocation_resultINS_16allocator_traitsIT_E7pointerEEERS7_m, symObjAddr: 0x269D8, symBinAddr: 0x10002A1E4, symSize: 0x34 }
  - { offsetInCU: 0xFB2E6, offset: 0xFB2E6, size: 0x8, addend: 0x0, symName: __ZN24HelloTriangleApplication23beginSingleTimeCommandsEv, symObjAddr: 0x26D5C, symBinAddr: 0x10002A568, symSize: 0x70 }
  - { offsetInCU: 0xFB536, offset: 0xFB536, size: 0x8, addend: 0x0, symName: __ZN24HelloTriangleApplication21endSingleTimeCommandsEP17VkCommandBuffer_T, symObjAddr: 0x26DF0, symBinAddr: 0x10002A5FC, symSize: 0x88 }
  - { offsetInCU: 0xFB5D6, offset: 0xFB5D6, size: 0x8, addend: 0x0, symName: __ZNSt16invalid_argumentC1B8ue170006EPKc, symObjAddr: 0x26DCC, symBinAddr: 0x10002A5D8, symSize: 0x24 }
  - { offsetInCU: 0xFBB16, offset: 0xFBB16, size: 0x8, addend: 0x0, symName: __ZNKSt3__14hashI6VertexEclERKS1_, symObjAddr: 0x26FB8, symBinAddr: 0x10002A7C4, symSize: 0xE4 }
  - { offsetInCU: 0xFBD4F, offset: 0xFBD4F, size: 0x8, addend: 0x0, symName: __ZNK6VertexeqERKS_, symObjAddr: 0x2709C, symBinAddr: 0x10002A8A8, symSize: 0x88 }
  - { offsetInCU: 0xFBD86, offset: 0xFBD86, size: 0x8, addend: 0x0, symName: __ZNK6VertexeqERKS_, symObjAddr: 0x2709C, symBinAddr: 0x10002A8A8, symSize: 0x88 }
  - { offsetInCU: 0xFC289, offset: 0xFC289, size: 0x8, addend: 0x0, symName: __ZNSt3__112__hash_tableINS_17__hash_value_typeI6VertexjEENS_22__unordered_map_hasherIS2_S3_NS_4hashIS2_EENS_8equal_toIS2_EELb1EEENS_21__unordered_map_equalIS2_S3_S8_S6_Lb1EEENS_9allocatorIS3_EEE8__rehashILb1EEEvm, symObjAddr: 0x27368, symBinAddr: 0x10002AB74, symSize: 0xDC }
  - { offsetInCU: 0xFC370, offset: 0xFC370, size: 0x8, addend: 0x0, symName: __ZNSt3__112__hash_tableINS_17__hash_value_typeI6VertexjEENS_22__unordered_map_hasherIS2_S3_NS_4hashIS2_EENS_8equal_toIS2_EELb1EEENS_21__unordered_map_equalIS2_S3_S8_S6_Lb1EEENS_9allocatorIS3_EEE11__do_rehashILb1EEEvm, symObjAddr: 0x27444, symBinAddr: 0x10002AC50, symSize: 0x158 }
  - { offsetInCU: 0xFC7F5, offset: 0xFC7F5, size: 0x8, addend: 0x0, symName: __ZNKSt3__16vectorI6VertexNS_9allocatorIS1_EEE20__throw_length_errorB8ue170006Ev, symObjAddr: 0x2759C, symBinAddr: 0x10002ADA8, symSize: 0x14 }
  - { offsetInCU: 0xFCAC3, offset: 0xFCAC3, size: 0x8, addend: 0x0, symName: __ZNSt3__16vectorIP10VkBuffer_TNS_9allocatorIS2_EEE8__appendEm, symObjAddr: 0x27790, symBinAddr: 0x10002AF9C, symSize: 0x100 }
  - { offsetInCU: 0xFCEE8, offset: 0xFCEE8, size: 0x8, addend: 0x0, symName: __ZNKSt3__16vectorIP10VkBuffer_TNS_9allocatorIS2_EEE20__throw_length_errorB8ue170006Ev, symObjAddr: 0x27890, symBinAddr: 0x10002B09C, symSize: 0x14 }
  - { offsetInCU: 0xFCF57, offset: 0xFCF57, size: 0x8, addend: 0x0, symName: __ZNSt3__16vectorIP16VkDeviceMemory_TNS_9allocatorIS2_EEE8__appendEm, symObjAddr: 0x278D8, symBinAddr: 0x10002B0E4, symSize: 0x100 }
  - { offsetInCU: 0xFD37C, offset: 0xFD37C, size: 0x8, addend: 0x0, symName: __ZNSt3__16vectorIPvNS_9allocatorIS1_EEE8__appendEm, symObjAddr: 0x279D8, symBinAddr: 0x10002B1E4, symSize: 0x100 }
  - { offsetInCU: 0xFD407, offset: 0xFD407, size: 0x8, addend: 0x0, symName: __ZNSt3__16vectorIPvNS_9allocatorIS1_EEE8__appendEm, symObjAddr: 0x279D8, symBinAddr: 0x10002B1E4, symSize: 0x100 }
  - { offsetInCU: 0xFD82C, offset: 0xFD82C, size: 0x8, addend: 0x0, symName: __ZNKSt3__16vectorIPvNS_9allocatorIS1_EEE20__throw_length_errorB8ue170006Ev, symObjAddr: 0x27AD8, symBinAddr: 0x10002B2E4, symSize: 0x14 }
  - { offsetInCU: 0xFDB5C, offset: 0xFDB5C, size: 0x8, addend: 0x0, symName: __ZNKSt3__16vectorIP10VkBuffer_TNS_9allocatorIS2_EEE20__throw_length_errorB8ue170006Ev, symObjAddr: 0x27890, symBinAddr: 0x10002B09C, symSize: 0x14 }
  - { offsetInCU: 0xFDB86, offset: 0xFDB86, size: 0x8, addend: 0x0, symName: __ZNSt3__119__allocate_at_leastB8ue170006INS_9allocatorIP10VkBuffer_TEEEENS_19__allocation_resultINS_16allocator_traitsIT_E7pointerEEERS7_m, symObjAddr: 0x278A4, symBinAddr: 0x10002B0B0, symSize: 0x34 }
  - { offsetInCU: 0xFDF9E, offset: 0xFDF9E, size: 0x8, addend: 0x0, symName: __ZNKSt3__16vectorIPvNS_9allocatorIS1_EEE20__throw_length_errorB8ue170006Ev, symObjAddr: 0x27AD8, symBinAddr: 0x10002B2E4, symSize: 0x14 }
  - { offsetInCU: 0xFDFC8, offset: 0xFDFC8, size: 0x8, addend: 0x0, symName: __ZNSt3__119__allocate_at_leastB8ue170006INS_9allocatorIPvEEEENS_19__allocation_resultINS_16allocator_traitsIT_E7pointerEEERS6_m, symObjAddr: 0x27AEC, symBinAddr: 0x10002B2F8, symSize: 0x34 }
  - { offsetInCU: 0xFE08F, offset: 0xFE08F, size: 0x8, addend: 0x0, symName: __ZNSt3__16vectorIP17VkDescriptorSet_TNS_9allocatorIS2_EEE8__appendEm, symObjAddr: 0x27CAC, symBinAddr: 0x10002B4B8, symSize: 0x100 }
  - { offsetInCU: 0xFE4B4, offset: 0xFE4B4, size: 0x8, addend: 0x0, symName: __ZNKSt3__16vectorIP17VkDescriptorSet_TNS_9allocatorIS2_EEE20__throw_length_errorB8ue170006Ev, symObjAddr: 0x27DAC, symBinAddr: 0x10002B5B8, symSize: 0x14 }
  - { offsetInCU: 0xFE658, offset: 0xFE658, size: 0x8, addend: 0x0, symName: __ZNSt3__16vectorIP23VkDescriptorSetLayout_TNS_9allocatorIS2_EEE11__vallocateB8ue170006Em, symObjAddr: 0x27C24, symBinAddr: 0x10002B430, symSize: 0x40 }
  - { offsetInCU: 0xFE6D4, offset: 0xFE6D4, size: 0x8, addend: 0x0, symName: __ZNKSt3__16vectorIP23VkDescriptorSetLayout_TNS_9allocatorIS2_EEE20__throw_length_errorB8ue170006Ev, symObjAddr: 0x27C64, symBinAddr: 0x10002B470, symSize: 0x14 }
  - { offsetInCU: 0xFE6FB, offset: 0xFE6FB, size: 0x8, addend: 0x0, symName: __ZNKSt3__16vectorIP23VkDescriptorSetLayout_TNS_9allocatorIS2_EEE20__throw_length_errorB8ue170006Ev, symObjAddr: 0x27C64, symBinAddr: 0x10002B470, symSize: 0x14 }
  - { offsetInCU: 0xFE725, offset: 0xFE725, size: 0x8, addend: 0x0, symName: __ZNSt3__119__allocate_at_leastB8ue170006INS_9allocatorIP23VkDescriptorSetLayout_TEEEENS_19__allocation_resultINS_16allocator_traitsIT_E7pointerEEERS7_m, symObjAddr: 0x27C78, symBinAddr: 0x10002B484, symSize: 0x34 }
  - { offsetInCU: 0xFEA70, offset: 0xFEA70, size: 0x8, addend: 0x0, symName: __ZNKSt3__16vectorIP17VkDescriptorSet_TNS_9allocatorIS2_EEE20__throw_length_errorB8ue170006Ev, symObjAddr: 0x27DAC, symBinAddr: 0x10002B5B8, symSize: 0x14 }
  - { offsetInCU: 0xFEA9A, offset: 0xFEA9A, size: 0x8, addend: 0x0, symName: __ZNSt3__119__allocate_at_leastB8ue170006INS_9allocatorIP17VkDescriptorSet_TEEEENS_19__allocation_resultINS_16allocator_traitsIT_E7pointerEEERS7_m, symObjAddr: 0x27DC0, symBinAddr: 0x10002B5CC, symSize: 0x34 }
  - { offsetInCU: 0xFEB2A, offset: 0xFEB2A, size: 0x8, addend: 0x0, symName: __ZNSt3__16vectorIP17VkCommandBuffer_TNS_9allocatorIS2_EEE8__appendEm, symObjAddr: 0x27E20, symBinAddr: 0x10002B62C, symSize: 0x100 }
  - { offsetInCU: 0xFEF4F, offset: 0xFEF4F, size: 0x8, addend: 0x0, symName: __ZNKSt3__16vectorIP17VkCommandBuffer_TNS_9allocatorIS2_EEE20__throw_length_errorB8ue170006Ev, symObjAddr: 0x27F20, symBinAddr: 0x10002B72C, symSize: 0x14 }
  - { offsetInCU: 0xFF27F, offset: 0xFF27F, size: 0x8, addend: 0x0, symName: __ZNKSt3__16vectorIP17VkCommandBuffer_TNS_9allocatorIS2_EEE20__throw_length_errorB8ue170006Ev, symObjAddr: 0x27F20, symBinAddr: 0x10002B72C, symSize: 0x14 }
  - { offsetInCU: 0xFF2A9, offset: 0xFF2A9, size: 0x8, addend: 0x0, symName: __ZNSt3__119__allocate_at_leastB8ue170006INS_9allocatorIP17VkCommandBuffer_TEEEENS_19__allocation_resultINS_16allocator_traitsIT_E7pointerEEERS7_m, symObjAddr: 0x27F34, symBinAddr: 0x10002B740, symSize: 0x34 }
  - { offsetInCU: 0xFF34F, offset: 0xFF34F, size: 0x8, addend: 0x0, symName: __ZNSt3__16vectorIP13VkSemaphore_TNS_9allocatorIS2_EEE8__appendEm, symObjAddr: 0x27FC0, symBinAddr: 0x10002B7CC, symSize: 0x100 }
  - { offsetInCU: 0xFF774, offset: 0xFF774, size: 0x8, addend: 0x0, symName: __ZNKSt3__16vectorIP13VkSemaphore_TNS_9allocatorIS2_EEE20__throw_length_errorB8ue170006Ev, symObjAddr: 0x280C0, symBinAddr: 0x10002B8CC, symSize: 0x14 }
  - { offsetInCU: 0xFF7FF, offset: 0xFF7FF, size: 0x8, addend: 0x0, symName: __ZNSt3__16vectorIP9VkFence_TNS_9allocatorIS2_EEE8__appendEm, symObjAddr: 0x28108, symBinAddr: 0x10002B914, symSize: 0x100 }
  - { offsetInCU: 0xFFC24, offset: 0xFFC24, size: 0x8, addend: 0x0, symName: __ZNKSt3__16vectorIP9VkFence_TNS_9allocatorIS2_EEE20__throw_length_errorB8ue170006Ev, symObjAddr: 0x28208, symBinAddr: 0x10002BA14, symSize: 0x14 }
  - { offsetInCU: 0xFFF54, offset: 0xFFF54, size: 0x8, addend: 0x0, symName: __ZNKSt3__16vectorIP13VkSemaphore_TNS_9allocatorIS2_EEE20__throw_length_errorB8ue170006Ev, symObjAddr: 0x280C0, symBinAddr: 0x10002B8CC, symSize: 0x14 }
  - { offsetInCU: 0xFFF7E, offset: 0xFFF7E, size: 0x8, addend: 0x0, symName: __ZNSt3__119__allocate_at_leastB8ue170006INS_9allocatorIP13VkSemaphore_TEEEENS_19__allocation_resultINS_16allocator_traitsIT_E7pointerEEERS7_m, symObjAddr: 0x280D4, symBinAddr: 0x10002B8E0, symSize: 0x34 }
  - { offsetInCU: 0x1002C9, offset: 0x1002C9, size: 0x8, addend: 0x0, symName: __ZNKSt3__16vectorIP9VkFence_TNS_9allocatorIS2_EEE20__throw_length_errorB8ue170006Ev, symObjAddr: 0x28208, symBinAddr: 0x10002BA14, symSize: 0x14 }
  - { offsetInCU: 0x1002F3, offset: 0x1002F3, size: 0x8, addend: 0x0, symName: __ZNSt3__119__allocate_at_leastB8ue170006INS_9allocatorIP9VkFence_TEEEENS_19__allocation_resultINS_16allocator_traitsIT_E7pointerEEERS7_m, symObjAddr: 0x2821C, symBinAddr: 0x10002BA28, symSize: 0x34 }
  - { offsetInCU: 0x100403, offset: 0x100403, size: 0x8, addend: 0x0, symName: __ZN24HelloTriangleApplication19recordCommandBufferEP17VkCommandBuffer_Tjj, symObjAddr: 0x28C68, symBinAddr: 0x10002C474, symSize: 0x26C }
  - { offsetInCU: 0x10078B, offset: 0x10078B, size: 0x8, addend: 0x0, symName: __ZN24HelloTriangleApplication17recreateSwapChainEv, symObjAddr: 0x28560, symBinAddr: 0x10002BD6C, symSize: 0x90 }
  - { offsetInCU: 0x100B0D, offset: 0x100B0D, size: 0x8, addend: 0x0, symName: __ZN24HelloTriangleApplication19updateUniformBufferEjj.cold.1, symObjAddr: 0x29E5C, symBinAddr: 0x1000331A4, symSize: 0x28 }
  - { offsetInCU: 0x1015AB, offset: 0x1015AB, size: 0x8, addend: 0x0, symName: __ZNSt3__16__treeINS_12__value_typeINS_12basic_stringIcNS_11char_traitsIcEENS_9allocatorIcEEEEiEENS_19__map_value_compareIS7_S8_NS_4lessIS7_EELb1EEENS5_IS8_EEE12__find_equalIS7_EERPNS_16__tree_node_baseIPvEERPNS_15__tree_end_nodeISJ_EERKT_, symObjAddr: 0x291B8, symBinAddr: 0x10002C9C4, symSize: 0x90 }
  - { offsetInCU: 0x101724, offset: 0x101724, size: 0x8, addend: 0x0, symName: __ZNSt3__16__treeINS_12__value_typeINS_12basic_stringIcNS_11char_traitsIcEENS_9allocatorIcEEEEiEENS_19__map_value_compareIS7_S8_NS_4lessIS7_EELb1EEENS5_IS8_EEE16__insert_node_atEPNS_15__tree_end_nodeIPNS_16__tree_node_baseIPvEEEERSJ_SJ_, symObjAddr: 0x29248, symBinAddr: 0x10002CA54, symSize: 0x54 }
  - { offsetInCU: 0x101963, offset: 0x101963, size: 0x8, addend: 0x0, symName: __ZNSt3__112basic_stringIcNS_11char_traitsIcEENS_9allocatorIcEEEC2B8ue170006Emc, symObjAddr: 0x2953C, symBinAddr: 0x10002CD48, symSize: 0x98 }
  - { offsetInCU: 0x101B7D, offset: 0x101B7D, size: 0x8, addend: 0x0, symName: __ZNSt3__16__treeINS_12__value_typeINS_12basic_stringIcNS_11char_traitsIcEENS_9allocatorIcEEEES7_EENS_19__map_value_compareIS7_S8_NS_4lessIS7_EELb1EEENS5_IS8_EEE25__emplace_unique_key_argsIS7_JNS_4pairIS7_S7_EEEEENSG_INS_15__tree_iteratorIS8_PNS_11__tree_nodeIS8_PvEElEEbEERKT_DpOT0_, symObjAddr: 0x295D4, symBinAddr: 0x10002CDE0, symSize: 0xCC }
  - { offsetInCU: 0x101D71, offset: 0x101D71, size: 0x8, addend: 0x0, symName: __ZNKSt3__115basic_stringbufIcNS_11char_traitsIcEENS_9allocatorIcEEE4viewB8ue170006Ev, symObjAddr: 0x2972C, symBinAddr: 0x10002CF38, symSize: 0x4C }
  - { offsetInCU: 0x101F9B, offset: 0x101F9B, size: 0x8, addend: 0x0, symName: __ZNSt3__16__treeINS_12basic_stringIcNS_11char_traitsIcEENS_9allocatorIcEEEENS_4lessIS6_EENS4_IS6_EEE16__construct_nodeIJRKS6_EEENS_10unique_ptrINS_11__tree_nodeIS6_PvEENS_22__tree_node_destructorINS4_ISH_EEEEEEDpOT_, symObjAddr: 0x29928, symBinAddr: 0x10002D134, symSize: 0x9C }
  - { offsetInCU: 0x102311, offset: 0x102311, size: 0x8, addend: 0x0, symName: __ZNSt3__115basic_stringbufIcNS_11char_traitsIcEENS_9allocatorIcEEE15__init_buf_ptrsB8ue170006Ev, symObjAddr: 0x29A54, symBinAddr: 0x10002D260, symSize: 0x110 }
  - { offsetInCU: 0x52, offset: 0x102A82, size: 0x8, addend: 0x0, symName: __ZL9false_sym, symObjAddr: 0x8A6B8, symBinAddr: 0x10003C2B8, symSize: 0x0 }
  - { offsetInCU: 0x8D40, offset: 0x10B770, size: 0x8, addend: 0x0, symName: __ZNSt3__112construct_atB8ue170006I4cellJRKS1_EPS1_EEPT_S6_DpOT0_, symObjAddr: 0x4F30, symBinAddr: 0x1000323E4, symSize: 0xB8 }
  - { offsetInCU: 0x8FD9, offset: 0x10BA09, size: 0x8, addend: 0x0, symName: __ZNSt3__119__allocate_at_leastB8ue170006INS_9allocatorI4cellEEEENS_19__allocation_resultINS_16allocator_traitsIT_E7pointerEEERS6_m, symObjAddr: 0x4924, symBinAddr: 0x100031E88, symSize: 0x48 }
  - { offsetInCU: 0x907A, offset: 0x10BAAA, size: 0x8, addend: 0x0, symName: __ZNSt3__135__uninitialized_allocator_copy_implB8ue170006INS_9allocatorI4cellEEPS2_S4_S4_EET2_RT_T0_T1_S5_, symObjAddr: 0x496C, symBinAddr: 0x100031ED0, symSize: 0xA0 }
  - { offsetInCU: 0x914A, offset: 0x10BB7A, size: 0x8, addend: 0x0, symName: __ZNSt3__1plB8ue170006IcNS_11char_traitsIcEENS_9allocatorIcEEEENS_12basic_stringIT_T0_T1_EERKS9_S6_, symObjAddr: 0x3F34, symBinAddr: 0x1000315F4, symSize: 0x90 }
  - { offsetInCU: 0x96C7, offset: 0x10C0F7, size: 0x8, addend: 0x0, symName: __ZNSt3__1eqB8ue170006IcNS_11char_traitsIcEENS_9allocatorIcEEEEbRKNS_12basic_stringIT_T0_T1_EEPKS6_, symObjAddr: 0x3770, symBinAddr: 0x100030E30, symSize: 0x74 }
  - { offsetInCU: 0xACA1, offset: 0x10D6D1, size: 0x8, addend: 0x0, symName: __ZNSt3__135__uninitialized_allocator_copy_implB8ue170006INS_9allocatorI4cellEEPS2_S4_S4_EET2_RT_T0_T1_S5_, symObjAddr: 0x496C, symBinAddr: 0x100031ED0, symSize: 0xA0 }
  - { offsetInCU: 0xAE75, offset: 0x10D8A5, size: 0x8, addend: 0x0, symName: __ZNSt3__112construct_atB8ue170006I4cellJRS1_EPS1_EEPT_S5_DpOT0_, symObjAddr: 0x4A0C, symBinAddr: 0x100031F70, symSize: 0xB8 }
  - { offsetInCU: 0xB281, offset: 0x10DCB1, size: 0x8, addend: 0x0, symName: __ZNSt3__110destroy_atB8ue170006I4cellLi0EEEvPT_, symObjAddr: 0x4B1C, symBinAddr: 0x100032080, symSize: 0x44 }
  - { offsetInCU: 0xB6D9, offset: 0x10E109, size: 0x8, addend: 0x0, symName: __ZNSt3__142__uninitialized_allocator_move_if_noexceptB8ue170006INS_9allocatorI4cellEENS_16reverse_iteratorIPS2_EES6_S6_EET2_RT_T0_T1_S7_, symObjAddr: 0x505C, symBinAddr: 0x100032510, symSize: 0xD0 }
  - { offsetInCU: 0xCA52, offset: 0x10F482, size: 0x8, addend: 0x0, symName: __ZL8true_sym, symObjAddr: 0x8A700, symBinAddr: 0x10003C300, symSize: 0x0 }
  - { offsetInCU: 0xCA6B, offset: 0x10F49B, size: 0x8, addend: 0x0, symName: __ZL3nil, symObjAddr: 0x8A748, symBinAddr: 0x10003C348, symSize: 0x0 }
  - { offsetInCU: 0xCA85, offset: 0x10F4B5, size: 0x8, addend: 0x0, symName: _quit, symObjAddr: 0x8A790, symBinAddr: 0x10003C3B0, symSize: 0x0 }
  - { offsetInCU: 0xCBD7, offset: 0x10F607, size: 0x8, addend: 0x0, symName: __ZNSt3__16vectorI4cellNS_9allocatorIS1_EEE26__swap_out_circular_bufferERNS_14__split_bufferIS1_RS3_EE, symObjAddr: 0x4FE8, symBinAddr: 0x10003249C, symSize: 0x74 }
  - { offsetInCU: 0xF221, offset: 0x111C51, size: 0x8, addend: 0x0, symName: __Z3strf, symObjAddr: 0x48, symBinAddr: 0x10002D708, symSize: 0xD4 }
  - { offsetInCU: 0xF485, offset: 0x111EB5, size: 0x8, addend: 0x0, symName: __ZNSt3__119basic_ostringstreamIcNS_11char_traitsIcEENS_9allocatorIcEEEC1B8ue170006Ev, symObjAddr: 0x11C, symBinAddr: 0x10002D7DC, symSize: 0xEC }
  - { offsetInCU: 0xF798, offset: 0x1121C8, size: 0x8, addend: 0x0, symName: __ZNSt3__119basic_ostringstreamIcNS_11char_traitsIcEENS_9allocatorIcEEED1Ev, symObjAddr: 0x208, symBinAddr: 0x10002D8C8, symSize: 0x84 }
  - { offsetInCU: 0xFA3F, offset: 0x11246F, size: 0x8, addend: 0x0, symName: __Z5isdigc, symObjAddr: 0x28C, symBinAddr: 0x10002D94C, symSize: 0x18 }
  - { offsetInCU: 0xFA5F, offset: 0x11248F, size: 0x8, addend: 0x0, symName: __Z5isdigc, symObjAddr: 0x28C, symBinAddr: 0x10002D94C, symSize: 0x18 }
  - { offsetInCU: 0xFA73, offset: 0x1124A3, size: 0x8, addend: 0x0, symName: __Z5isdigc, symObjAddr: 0x28C, symBinAddr: 0x10002D94C, symSize: 0x18 }
  - { offsetInCU: 0xFBF0, offset: 0x112620, size: 0x8, addend: 0x0, symName: __Z8proc_addRKNSt3__16vectorI4cellNS_9allocatorIS1_EEEE, symObjAddr: 0x2A4, symBinAddr: 0x10002D964, symSize: 0x104 }
  - { offsetInCU: 0x10310, offset: 0x112D40, size: 0x8, addend: 0x0, symName: __Z8proc_subRKNSt3__16vectorI4cellNS_9allocatorIS1_EEEE, symObjAddr: 0x3A8, symBinAddr: 0x10002DA68, symSize: 0x104 }
  - { offsetInCU: 0x10841, offset: 0x113271, size: 0x8, addend: 0x0, symName: __Z8proc_mulRKNSt3__16vectorI4cellNS_9allocatorIS1_EEEE, symObjAddr: 0x4AC, symBinAddr: 0x10002DB6C, symSize: 0xEC }
  - { offsetInCU: 0x10CB8, offset: 0x1136E8, size: 0x8, addend: 0x0, symName: __Z8proc_divRKNSt3__16vectorI4cellNS_9allocatorIS1_EEEE, symObjAddr: 0x598, symBinAddr: 0x10002DC58, symSize: 0x104 }
  - { offsetInCU: 0x1125D, offset: 0x113C8D, size: 0x8, addend: 0x0, symName: __Z12proc_greaterRKNSt3__16vectorI4cellNS_9allocatorIS1_EEEE, symObjAddr: 0x69C, symBinAddr: 0x10002DD5C, symSize: 0x1C4 }
  - { offsetInCU: 0x11695, offset: 0x1140C5, size: 0x8, addend: 0x0, symName: __ZNSt3__16vectorI4cellNS_9allocatorIS1_EEE16__init_with_sizeB8ue170006IPS1_S6_EEvT_T0_m, symObjAddr: 0x4838, symBinAddr: 0x100031D9C, symSize: 0x84 }
  - { offsetInCU: 0x1190F, offset: 0x11433F, size: 0x8, addend: 0x0, symName: __ZN4cellC1ERKS_, symObjAddr: 0x860, symBinAddr: 0x10002DF20, symSize: 0xB8 }
  - { offsetInCU: 0x11B5B, offset: 0x11458B, size: 0x8, addend: 0x0, symName: __Z9proc_lessRKNSt3__16vectorI4cellNS_9allocatorIS1_EEEE, symObjAddr: 0x918, symBinAddr: 0x10002DFD8, symSize: 0x1C4 }
  - { offsetInCU: 0x11F81, offset: 0x1149B1, size: 0x8, addend: 0x0, symName: __Z15proc_less_equalRKNSt3__16vectorI4cellNS_9allocatorIS1_EEEE, symObjAddr: 0xADC, symBinAddr: 0x10002E19C, symSize: 0x1C4 }
  - { offsetInCU: 0x123A7, offset: 0x114DD7, size: 0x8, addend: 0x0, symName: __Z11proc_lengthRKNSt3__16vectorI4cellNS_9allocatorIS1_EEEE, symObjAddr: 0xCA0, symBinAddr: 0x10002E360, symSize: 0xC8 }
  - { offsetInCU: 0x12782, offset: 0x1151B2, size: 0x8, addend: 0x0, symName: __Z10proc_nullpRKNSt3__16vectorI4cellNS_9allocatorIS1_EEEE, symObjAddr: 0xD68, symBinAddr: 0x10002E428, symSize: 0x140 }
  - { offsetInCU: 0x12A29, offset: 0x115459, size: 0x8, addend: 0x0, symName: __Z8proc_carRKNSt3__16vectorI4cellNS_9allocatorIS1_EEEE, symObjAddr: 0xEA8, symBinAddr: 0x10002E568, symSize: 0xB8 }
  - { offsetInCU: 0x12D81, offset: 0x1157B1, size: 0x8, addend: 0x0, symName: __Z8proc_cdrRKNSt3__16vectorI4cellNS_9allocatorIS1_EEEE, symObjAddr: 0xF60, symBinAddr: 0x10002E620, symSize: 0x1A8 }
  - { offsetInCU: 0x131C2, offset: 0x115BF2, size: 0x8, addend: 0x0, symName: __ZNKSt3__111__move_loopINS_17_ClassicAlgPolicyEEclB8ue170006IP4cellS5_S5_EENS_4pairIT_T1_EES7_T0_S8_, symObjAddr: 0x4C10, symBinAddr: 0x1000320C4, symSize: 0xAC }
  - { offsetInCU: 0x1367D, offset: 0x1160AD, size: 0x8, addend: 0x0, symName: __Z11proc_appendRKNSt3__16vectorI4cellNS_9allocatorIS1_EEEE, symObjAddr: 0x1108, symBinAddr: 0x10002E7C8, symSize: 0xC4 }
  - { offsetInCU: 0x138E0, offset: 0x116310, size: 0x8, addend: 0x0, symName: __ZNSt3__16vectorI4cellNS_9allocatorIS1_EEE18__assign_with_sizeB8ue170006IPS1_S6_EEvT_T0_l, symObjAddr: 0x4CBC, symBinAddr: 0x100032170, symSize: 0x18C }
  - { offsetInCU: 0x13E5E, offset: 0x11688E, size: 0x8, addend: 0x0, symName: __ZNSt3__16vectorI4cellNS_9allocatorIS1_EEE9push_backB8ue170006ERKS1_, symObjAddr: 0x11CC, symBinAddr: 0x10002E88C, symSize: 0x130 }
  - { offsetInCU: 0x14478, offset: 0x116EA8, size: 0x8, addend: 0x0, symName: __ZNSt3__114__split_bufferI4cellRNS_9allocatorIS1_EEED2Ev, symObjAddr: 0x5184, symBinAddr: 0x100032638, symSize: 0x34 }
  - { offsetInCU: 0x14585, offset: 0x116FB5, size: 0x8, addend: 0x0, symName: __ZNKSt3__16vectorI4cellNS_9allocatorIS1_EEE20__throw_length_errorB8ue170006Ev, symObjAddr: 0x4910, symBinAddr: 0x100031E74, symSize: 0x14 }
  - { offsetInCU: 0x145AF, offset: 0x116FDF, size: 0x8, addend: 0x0, symName: __ZNSt3__119__allocate_at_leastB8ue170006INS_9allocatorI4cellEEEENS_19__allocation_resultINS_16allocator_traitsIT_E7pointerEEERS6_m, symObjAddr: 0x4924, symBinAddr: 0x100031E88, symSize: 0x48 }
  - { offsetInCU: 0x145BA, offset: 0x116FEA, size: 0x8, addend: 0x0, symName: __Z9proc_consRKNSt3__16vectorI4cellNS_9allocatorIS1_EEEE, symObjAddr: 0x12FC, symBinAddr: 0x10002E9BC, symSize: 0x98 }
  - { offsetInCU: 0x14794, offset: 0x1171C4, size: 0x8, addend: 0x0, symName: __Z9proc_listRKNSt3__16vectorI4cellNS_9allocatorIS1_EEEE, symObjAddr: 0x1394, symBinAddr: 0x10002EA54, symSize: 0x80 }
  - { offsetInCU: 0x1490D, offset: 0x11733D, size: 0x8, addend: 0x0, symName: __Z9proc_quitRKNSt3__16vectorI4cellNS_9allocatorIS1_EEEE, symObjAddr: 0x1414, symBinAddr: 0x10002EAD4, symSize: 0xEC }
  - { offsetInCU: 0x14B7B, offset: 0x1175AB, size: 0x8, addend: 0x0, symName: __Z10proc_printRKNSt3__16vectorI4cellNS_9allocatorIS1_EEEE, symObjAddr: 0x1500, symBinAddr: 0x10002EBC0, symSize: 0x148 }
  - { offsetInCU: 0x15149, offset: 0x117B79, size: 0x8, addend: 0x0, symName: __Z9to_stringRK4cell, symObjAddr: 0x1648, symBinAddr: 0x10002ED08, symSize: 0x200 }
  - { offsetInCU: 0x160F9, offset: 0x118B29, size: 0x8, addend: 0x0, symName: __Z11add_globalsR11environment, symObjAddr: 0x1848, symBinAddr: 0x10002EF08, symSize: 0x1230 }
  - { offsetInCU: 0x1CCF9, offset: 0x11F729, size: 0x8, addend: 0x0, symName: __ZNSt3__16__treeINS_12__value_typeINS_12basic_stringIcNS_11char_traitsIcEENS_9allocatorIcEEEE4cellEENS_19__map_value_compareIS7_S9_NS_4lessIS7_EELb1EEENS5_IS9_EEE25__emplace_unique_key_argsIS7_JRKNS_21piecewise_construct_tENS_5tupleIJRKS7_EEENSK_IJEEEEEENS_4pairINS_15__tree_iteratorIS9_PNS_11__tree_nodeIS9_PvEElEEbEERKT_DpOT0_, symObjAddr: 0x5814, symBinAddr: 0x100032A14, symSize: 0xA8 }
  - { offsetInCU: 0x1CEE1, offset: 0x11F911, size: 0x8, addend: 0x0, symName: __ZNSt3__16vectorI4cellNS_9allocatorIS1_EEE13__vdeallocateEv, symObjAddr: 0x4E48, symBinAddr: 0x1000322FC, symSize: 0x38 }
  - { offsetInCU: 0x1D018, offset: 0x11FA48, size: 0x8, addend: 0x0, symName: __ZN4cellaSEOS_, symObjAddr: 0x2A78, symBinAddr: 0x100030138, symSize: 0x88 }
  - { offsetInCU: 0x1D446, offset: 0x11FE76, size: 0x8, addend: 0x0, symName: __Z4eval4cellP11environment, symObjAddr: 0x2B00, symBinAddr: 0x1000301C0, symSize: 0xBEC }
  - { offsetInCU: 0x1FC95, offset: 0x1226C5, size: 0x8, addend: 0x0, symName: __ZN11environment4findERKNSt3__112basic_stringIcNS0_11char_traitsIcEENS0_9allocatorIcEEEE, symObjAddr: 0x36EC, symBinAddr: 0x100030DAC, symSize: 0x84 }
  - { offsetInCU: 0x1FE53, offset: 0x122883, size: 0x8, addend: 0x0, symName: __ZNSt3__16vectorI4cellNS_9allocatorIS1_EEE21__push_back_slow_pathIS1_EEvOT_, symObjAddr: 0x5308, symBinAddr: 0x100032728, symSize: 0x158 }
  - { offsetInCU: 0x20202, offset: 0x122C32, size: 0x8, addend: 0x0, symName: __ZN11environmentC2ERKNSt3__16vectorI4cellNS0_9allocatorIS2_EEEES7_PS_, symObjAddr: 0x5460, symBinAddr: 0x100032880, symSize: 0x11C }
  - { offsetInCU: 0x205F3, offset: 0x123023, size: 0x8, addend: 0x0, symName: __ZNSt3__16__treeINS_12__value_typeINS_12basic_stringIcNS_11char_traitsIcEENS_9allocatorIcEEEE4cellEENS_19__map_value_compareIS7_S9_NS_4lessIS7_EELb1EEENS5_IS9_EEE4findIS7_EENS_15__tree_iteratorIS9_PNS_11__tree_nodeIS9_PvEElEERKT_, symObjAddr: 0x51F8, symBinAddr: 0x1000326AC, symSize: 0x7C }
  - { offsetInCU: 0x20E9A, offset: 0x1238CA, size: 0x8, addend: 0x0, symName: __Z8tokenizeRKNSt3__112basic_stringIcNS_11char_traitsIcEENS_9allocatorIcEEEE, symObjAddr: 0x37E4, symBinAddr: 0x100030EA4, symSize: 0x3A0 }
  - { offsetInCU: 0x220AB, offset: 0x124ADB, size: 0x8, addend: 0x0, symName: __ZNSt3__110__list_impINS_12basic_stringIcNS_11char_traitsIcEENS_9allocatorIcEEEENS4_IS6_EEE5clearEv, symObjAddr: 0x56AC, symBinAddr: 0x10003299C, symSize: 0x78 }
  - { offsetInCU: 0x220CE, offset: 0x124AFE, size: 0x8, addend: 0x0, symName: __ZNSt3__110__list_impINS_12basic_stringIcNS_11char_traitsIcEENS_9allocatorIcEEEENS4_IS6_EEE5clearEv, symObjAddr: 0x56AC, symBinAddr: 0x10003299C, symSize: 0x78 }
  - { offsetInCU: 0x22427, offset: 0x124E57, size: 0x8, addend: 0x0, symName: __Z4atomRKNSt3__112basic_stringIcNS_11char_traitsIcEENS_9allocatorIcEEEE, symObjAddr: 0x3B84, symBinAddr: 0x100031244, symSize: 0x104 }
  - { offsetInCU: 0x2268B, offset: 0x1250BB, size: 0x8, addend: 0x0, symName: __Z9read_fromRNSt3__14listINS_12basic_stringIcNS_11char_traitsIcEENS_9allocatorIcEEEENS4_IS6_EEEE, symObjAddr: 0x3C88, symBinAddr: 0x100031348, symSize: 0x210 }
  - { offsetInCU: 0x230DA, offset: 0x125B0A, size: 0x8, addend: 0x0, symName: __ZNSt3__14listINS_12basic_stringIcNS_11char_traitsIcEENS_9allocatorIcEEEENS4_IS6_EEE9pop_frontEv, symObjAddr: 0x3E98, symBinAddr: 0x100031558, symSize: 0x48 }
  - { offsetInCU: 0x2341A, offset: 0x125E4A, size: 0x8, addend: 0x0, symName: __Z4readRKNSt3__112basic_stringIcNS_11char_traitsIcEENS_9allocatorIcEEEE, symObjAddr: 0x3EE0, symBinAddr: 0x1000315A0, symSize: 0x54 }
  - { offsetInCU: 0x23771, offset: 0x1261A1, size: 0x8, addend: 0x0, symName: __ZNSt3__16__treeINS_12__value_typeINS_12basic_stringIcNS_11char_traitsIcEENS_9allocatorIcEEEE4cellEENS_19__map_value_compareIS7_S9_NS_4lessIS7_EELb1EEENS5_IS9_EEE25__emplace_unique_key_argsIS7_JRKNS_21piecewise_construct_tENS_5tupleIJRKS7_EEENSK_IJEEEEEENS_4pairINS_15__tree_iteratorIS9_PNS_11__tree_nodeIS9_PvEElEEbEERKT_DpOT0_, symObjAddr: 0x5814, symBinAddr: 0x100032A14, symSize: 0xA8 }
  - { offsetInCU: 0x2381F, offset: 0x12624F, size: 0x8, addend: 0x0, symName: __Z4replRKNSt3__112basic_stringIcNS_11char_traitsIcEENS_9allocatorIcEEEEP11environment, symObjAddr: 0x3FC4, symBinAddr: 0x100031684, symSize: 0x250 }
  - { offsetInCU: 0x248E9, offset: 0x127319, size: 0x8, addend: 0x0, symName: __Z9StartREPLv, symObjAddr: 0x4214, symBinAddr: 0x1000318D4, symSize: 0xA4 }
  - { offsetInCU: 0x24FC5, offset: 0x1279F5, size: 0x8, addend: 0x0, symName: __Z17RunLISPexpressionNSt3__112basic_stringIcNS_11char_traitsIcEENS_9allocatorIcEEEEP11environment, symObjAddr: 0x42B8, symBinAddr: 0x100031978, symSize: 0x1FC }
  - { offsetInCU: 0x25C50, offset: 0x128680, size: 0x8, addend: 0x0, symName: __Z9StartLispv, symObjAddr: 0x44B4, symBinAddr: 0x100031B74, symSize: 0x228 }
  - { offsetInCU: 0x26F5F, offset: 0x12998F, size: 0x8, addend: 0x0, symName: __ZNSt3__16vectorI4cellNS_9allocatorIS1_EEE11__vallocateB8ue170006Em, symObjAddr: 0x48BC, symBinAddr: 0x100031E20, symSize: 0x54 }
  - { offsetInCU: 0x26FDA, offset: 0x129A0A, size: 0x8, addend: 0x0, symName: __ZNKSt3__16vectorI4cellNS_9allocatorIS1_EEE20__throw_length_errorB8ue170006Ev, symObjAddr: 0x4910, symBinAddr: 0x100031E74, symSize: 0x14 }
  - { offsetInCU: 0x270D2, offset: 0x129B02, size: 0x8, addend: 0x0, symName: __ZNSt3__128__exception_guard_exceptionsINS_29_AllocatorDestroyRangeReverseINS_9allocatorI4cellEEPS3_EEED2B8ue170006Ev, symObjAddr: 0x4AC4, symBinAddr: 0x100032028, symSize: 0x58 }
  - { offsetInCU: 0x27319, offset: 0x129D49, size: 0x8, addend: 0x0, symName: __ZNKSt3__111__copy_loopINS_17_ClassicAlgPolicyEEclB8ue170006IP4cellS5_S5_EENS_4pairIT_T1_EES7_T0_S8_, symObjAddr: 0x4E80, symBinAddr: 0x100032334, symSize: 0xB0 }
  - { offsetInCU: 0x274D4, offset: 0x129F04, size: 0x8, addend: 0x0, symName: __ZNSt3__128__exception_guard_exceptionsINS_29_AllocatorDestroyRangeReverseINS_9allocatorI4cellEENS_16reverse_iteratorIPS3_EEEEED2B8ue170006Ev, symObjAddr: 0x512C, symBinAddr: 0x1000325E0, symSize: 0x58 }
  - { offsetInCU: 0x275F1, offset: 0x12A021, size: 0x8, addend: 0x0, symName: __ZNSt3__114__split_bufferI4cellRNS_9allocatorIS1_EEE17__destruct_at_endB8ue170006EPS1_, symObjAddr: 0x51B8, symBinAddr: 0x10003266C, symSize: 0x40 }
  - { offsetInCU: 0x278EE, offset: 0x12A31E, size: 0x8, addend: 0x0, symName: __ZNSt3__16__treeINS_12__value_typeINS_12basic_stringIcNS_11char_traitsIcEENS_9allocatorIcEEEE4cellEENS_19__map_value_compareIS7_S9_NS_4lessIS7_EELb1EEENS5_IS9_EEE12__find_equalIS7_EERPNS_16__tree_node_baseIPvEERPNS_15__tree_end_nodeISK_EERKT_, symObjAddr: 0x58BC, symBinAddr: 0x100032ABC, symSize: 0x90 }
  - { offsetInCU: 0x27A67, offset: 0x12A497, size: 0x8, addend: 0x0, symName: __ZNSt3__16__treeINS_12__value_typeINS_12basic_stringIcNS_11char_traitsIcEENS_9allocatorIcEEEE4cellEENS_19__map_value_compareIS7_S9_NS_4lessIS7_EELb1EEENS5_IS9_EEE16__construct_nodeIJRKNS_21piecewise_construct_tENS_5tupleIJRKS7_EEENSK_IJEEEEEENS_10unique_ptrINS_11__tree_nodeIS9_PvEENS_22__tree_node_destructorINS5_ISS_EEEEEEDpOT_, symObjAddr: 0x594C, symBinAddr: 0x100032B4C, symSize: 0x68 }
  - { offsetInCU: 0x27CFB, offset: 0x12A72B, size: 0x8, addend: 0x0, symName: __ZNSt3__16__treeINS_12__value_typeINS_12basic_stringIcNS_11char_traitsIcEENS_9allocatorIcEEEE4cellEENS_19__map_value_compareIS7_S9_NS_4lessIS7_EELb1EEENS5_IS9_EEE16__insert_node_atEPNS_15__tree_end_nodeIPNS_16__tree_node_baseIPvEEEERSK_SK_, symObjAddr: 0x59B4, symBinAddr: 0x100032BB4, symSize: 0x54 }
  - { offsetInCU: 0x27D62, offset: 0x12A792, size: 0x8, addend: 0x0, symName: __ZNSt3__110unique_ptrINS_11__tree_nodeINS_12__value_typeINS_12basic_stringIcNS_11char_traitsIcEENS_9allocatorIcEEEE4cellEEPvEENS_22__tree_node_destructorINS6_ISC_EEEEE5resetB8ue170006EPSC_, symObjAddr: 0x5C00, symBinAddr: 0x100032C68, symSize: 0x44 }
  - { offsetInCU: 0x280F6, offset: 0x12AB26, size: 0x8, addend: 0x0, symName: __ZNSt3__14pairIKNS_12basic_stringIcNS_11char_traitsIcEENS_9allocatorIcEEEE4cellEC1B8ue170006IJRS7_EJEEENS_21piecewise_construct_tENS_5tupleIJDpT_EEENSD_IJDpT0_EEE, symObjAddr: 0x5A08, symBinAddr: 0x100032C08, symSize: 0x60 }
...
